(lp0
ccopy_reg
_reconstructor
p1
(cchildAlgoExperiment
MyHypothesisX
p2
c__builtin__
object
p3
Ntp4
Rp5
(dp6
S'grammar'
p7
g1
(cLOTlib.Grammar
Grammar
p8
g3
Ntp9
Rp10
(dp11
S'rules'
p12
ccollections
defaultdict
p13
(c__builtin__
list
p14
tp15
Rp16
S'CONTAINER'
p17
(lp18
g1
(cLOTlib.GrammarRule
GrammarRule
p19
g3
Ntp20
Rp21
(dp22
S'to'
p23
NsS'bv_prefix'
p24
NsS'name'
p25
S"'bucket_0'"
p26
sS'p'
p27
F1.0
sS'nt'
p28
g17
sbag1
(g19
g3
Ntp29
Rp30
(dp31
g23
Nsg24
Nsg25
S"'bucket_1'"
p32
sg27
F1.0
sg28
g17
sbag1
(g19
g3
Ntp33
Rp34
(dp35
g23
Nsg24
Nsg25
S"'bucket_2'"
p36
sg27
F1.0
sg28
g17
sbag1
(g19
g3
Ntp37
Rp38
(dp39
g23
Nsg24
Nsg25
S"'bucket_3'"
p40
sg27
F1.0
sg28
g17
sbag1
(g19
g3
Ntp41
Rp42
(dp43
g23
Nsg24
Nsg25
S"'hand_right'"
p44
sg27
F5.0
sg28
g17
sbag1
(g19
g3
Ntp45
Rp46
(dp47
g23
Nsg24
Nsg25
S"'hand_left'"
p48
sg27
F1.0
sg28
g17
sbasS'WHILE_LOOP'
p49
(lp50
g1
(g19
g3
Ntp51
Rp52
(dp53
g23
(lp54
S'BOOL'
p55
aS'ACTION'
p56
asg24
Nsg25
S'while %s and x._itrCounter < 26:\n%s\nx._itrCounter += 1\nif x._itrCounter == 25:\nx._itrCounter = 0\nbreak}\n}'
p57
sg27
F1.0
sg28
g49
sbag1
(g19
g3
Ntp58
Rp59
(dp60
g23
(lp61
g55
aS'IF_STATEMENT'
p62
asg24
Nsg25
g57
sg27
F1.0
sg28
g49
sbasS'COLOR'
p63
(lp64
g1
(g19
g3
Ntp65
Rp66
(dp67
g23
Nsg24
Nsg25
S"'black'"
p68
sg27
F1.0
sg28
g63
sbag1
(g19
g3
Ntp69
Rp70
(dp71
g23
Nsg24
Nsg25
S"'red'"
p72
sg27
F1.0
sg28
g63
sbag1
(g19
g3
Ntp73
Rp74
(dp75
g23
Nsg24
Nsg25
S"'green'"
p76
sg27
F1.0
sg28
g63
sbasS'START'
p77
(lp78
g1
(g19
g3
Ntp79
Rp80
(dp81
g23
(lp82
S'STATEMENT_SEQ'
p83
asg24
Nsg25
S''
p84
sg27
F1.0
sg28
g77
sbasg83
(lp85
g1
(g19
g3
Ntp86
Rp87
(dp88
g23
(lp89
S'STATEMENT'
p90
ag83
asg24
Nsg25
S'%s\n%s'
p91
sg27
F1.0
sg28
g83
sbag1
(g19
g3
Ntp92
Rp93
(dp94
g23
(lp95
g90
asg24
Nsg25
S'%s'
p96
sg27
F1.0
sg28
g83
sbasg55
(lp97
g1
(g19
g3
Ntp98
Rp99
(dp100
g23
(lp101
g17
ag63
asg24
Nsg25
S'x.existColor(%s, %s)'
p102
sg27
F1.0
sg28
g55
sbag1
(g19
g3
Ntp103
Rp104
(dp105
g23
(lp106
g17
ag63
asg24
Nsg25
S'x.canAddBall(%s, %s)'
p107
sg27
F1.0
sg28
g55
sbag1
(g19
g3
Ntp108
Rp109
(dp110
g23
(lp111
g17
ag17
asg24
Nsg25
S'(x._container[%s] == x._container[%s])'
p112
sg27
F1.0
sg28
g55
sbag1
(g19
g3
Ntp113
Rp114
(dp115
g23
(lp116
g17
asg24
Nsg25
S'x._container[%s].isEmpty()'
p117
sg27
F1.0
sg28
g55
sbag1
(g19
g3
Ntp118
Rp119
(dp120
g23
(lp121
g55
asg24
Nsg25
S'not (%s)'
p122
sg27
F1.0
sg28
g55
sbag1
(g19
g3
Ntp123
Rp124
(dp125
g23
Nsg24
Nsg25
S'True'
p126
sg27
F1.0
sg28
g55
sbag1
(g19
g3
Ntp127
Rp128
(dp129
g23
Nsg24
Nsg25
S'False'
p130
sg27
F1.0
sg28
g55
sbasg90
(lp131
g1
(g19
g3
Ntp132
Rp133
(dp134
g23
(lp135
g56
asg24
Nsg25
g96
sg27
F1.0
sg28
g90
sbag1
(g19
g3
Ntp136
Rp137
(dp138
g23
(lp139
S'CONDITION'
p140
asg24
Nsg25
g96
sg27
F1.0
sg28
g90
sbasg56
(lp141
g1
(g19
g3
Ntp142
Rp143
(dp144
g23
(lp145
S'WORLDSTATE'
p146
ag146
ag17
ag17
ag63
asg24
Nsg25
S'%s = %s.moveBall(%s, %s, %s)'
p147
sg27
F1.0
sg28
g56
sbag1
(g19
g3
Ntp148
Rp149
(dp150
g23
(lp151
g146
ag146
ag17
ag17
asg24
Nsg25
S'%s = %s.moveRandomBall(%s, %s)'
p152
sg27
F1.0
sg28
g56
sbag1
(g19
g3
Ntp153
Rp154
(dp155
g23
Nsg24
Nsg25
S'pass'
p156
sg27
F0.1
sg28
g56
sbasg146
(lp157
g1
(g19
g3
Ntp158
Rp159
(dp160
g23
Nsg24
Nsg25
S'x'
p161
sg27
F1.0
sg28
g146
sbasg62
(lp162
g1
(g19
g3
Ntp163
Rp164
(dp165
g23
(lp166
g55
ag56
ag56
asg24
Nsg25
S'if %s:\n%s}\nelse:\n%s}'
p167
sg27
F1.0
sg28
g62
sbasg140
(lp168
g1
(g19
g3
Ntp169
Rp170
(dp171
g23
(lp172
g62
asg24
Nsg25
g96
sg27
F1.0
sg28
g140
sbag1
(g19
g3
Ntp173
Rp174
(dp175
g23
(lp176
g49
asg24
Nsg25
g96
sg27
F1.0
sg28
g140
sbassS'start'
p177
g77
sS'bv_count'
p178
I0
sS'rule_count'
p179
I30
sS'BV_P'
p180
F10.0
sbsS'stored_likelihood'
p181
NsS'f'
p182
NsS'value'
p183
g1
(cLOTlib.FunctionNode
FunctionNode
p184
g3
Ntp185
Rp186
(dp187
g25
g84
sS'parent'
p188
NsS'args'
p189
(lp190
g1
(g184
g3
Ntp191
Rp192
(dp193
g25
g96
sg188
g186
sg189
(lp194
g1
(g184
g3
Ntp195
Rp196
(dp197
g25
g96
sg188
g192
sg189
(lp198
g1
(g184
g3
Ntp199
Rp200
(dp201
g25
g96
sg188
g196
sg189
(lp202
g1
(g184
g3
Ntp203
Rp204
(dp205
g25
g167
sg188
g200
sg189
(lp206
g1
(g184
g3
Ntp207
Rp208
(dp209
g25
g112
sg188
g204
sg189
(lp210
g1
(g184
g3
Ntp211
Rp212
(dp213
g25
g26
sg188
g208
sg189
NsS'returntype'
p214
g17
sS'added_rule'
p215
Nsbag1
(g184
g3
Ntp216
Rp217
(dp218
g25
g40
sg188
g208
sg189
Nsg214
g17
sg215
Nsbasg214
g55
sg215
Nsbag1
(g184
g3
Ntp219
Rp220
(dp221
g25
g152
sg188
g204
sg189
(lp222
g1
(g184
g3
Ntp223
Rp224
(dp225
g25
g161
sg188
g220
sg189
Nsg214
g146
sg215
Nsbag1
(g184
g3
Ntp226
Rp227
(dp228
g25
g161
sg188
g220
sg189
Nsg214
g146
sg215
Nsbag1
(g184
g3
Ntp229
Rp230
(dp231
g25
g48
sg188
g220
sg189
Nsg214
g17
sg215
Nsbag1
(g184
g3
Ntp232
Rp233
(dp234
g25
g44
sg188
g220
sg189
Nsg214
g17
sg215
Nsbasg214
g56
sg215
Nsbag1
(g184
g3
Ntp235
Rp236
(dp237
g25
g152
sg188
g204
sg189
(lp238
g1
(g184
g3
Ntp239
Rp240
(dp241
g25
g161
sg188
g236
sg189
Nsg214
g146
sg215
Nsbag1
(g184
g3
Ntp242
Rp243
(dp244
g25
g161
sg188
g236
sg189
Nsg214
g146
sg215
Nsbag1
(g184
g3
Ntp245
Rp246
(dp247
g25
g40
sg188
g236
sg189
Nsg214
g17
sg215
Nsbag1
(g184
g3
Ntp248
Rp249
(dp250
g25
g36
sg188
g236
sg189
Nsg214
g17
sg215
Nsbasg214
g56
sg215
Nsbasg214
g62
sg215
Nsbasg214
g140
sg215
Nsbasg214
g90
sg215
Nsbasg214
g83
sg215
Nsbasg214
g77
sg215
NsbsS'posterior_score'
p251
F-2417.715299025724
sS'prior'
p252
F-17.715299025724075
sS'prior_temperature'
p253
F1.0
sS'likelihood_temperature'
p254
F1.0
sS'rules_vector'
p255
NsS'kwargs'
p256
(dp257
S'display'
p258
S'def foo(x): \n%s\n    return x'
p259
ssS'fvalue'
p260
NsS'likelihood'
p261
F-2400.0
sg258
g259
sS'maxnodes'
p262
I25
sbag1
(g2
g3
Ntp263
Rp264
(dp265
g7
g10
sg181
Nsg182
Nsg183
g1
(g184
g3
Ntp266
Rp267
(dp268
g25
g84
sg188
Nsg189
(lp269
g1
(g184
g3
Ntp270
Rp271
(dp272
g25
g96
sg188
g267
sg189
(lp273
g1
(g184
g3
Ntp274
Rp275
(dp276
g25
g96
sg188
g271
sg189
(lp277
g1
(g184
g3
Ntp278
Rp279
(dp280
g25
g96
sg188
g275
sg189
(lp281
g1
(g184
g3
Ntp282
Rp283
(dp284
g25
g167
sg188
g279
sg189
(lp285
g1
(g184
g3
Ntp286
Rp287
(dp288
g25
g112
sg188
g283
sg189
(lp289
g1
(g184
g3
Ntp290
Rp291
(dp292
g25
g26
sg188
g287
sg189
Nsg214
g17
sg215
Nsbag1
(g184
g3
Ntp293
Rp294
(dp295
g25
g40
sg188
g287
sg189
Nsg214
g17
sg215
Nsbasg214
g55
sg215
Nsbag1
(g184
g3
Ntp296
Rp297
(dp298
g25
g152
sg188
g283
sg189
(lp299
g1
(g184
g3
Ntp300
Rp301
(dp302
g25
g161
sg188
g297
sg189
Nsg214
g146
sg215
Nsbag1
(g184
g3
Ntp303
Rp304
(dp305
g25
g161
sg188
g297
sg189
Nsg214
g146
sg215
Nsbag1
(g184
g3
Ntp306
Rp307
(dp308
g25
g48
sg188
g297
sg189
Nsg214
g17
sg215
Nsbag1
(g184
g3
Ntp309
Rp310
(dp311
g25
g44
sg188
g297
sg189
Nsg214
g17
sg215
Nsbasg214
g56
sg215
Nsbag1
(g184
g3
Ntp312
Rp313
(dp314
g25
g152
sg188
g283
sg189
(lp315
g1
(g184
g3
Ntp316
Rp317
(dp318
g25
g161
sg188
g313
sg189
Nsg214
g146
sg215
Nsbag1
(g184
g3
Ntp319
Rp320
(dp321
g25
g161
sg188
g313
sg189
Nsg214
g146
sg215
Nsbag1
(g184
g3
Ntp322
Rp323
(dp324
g25
g40
sg188
g313
sg189
Nsg214
g17
sg215
Nsbag1
(g184
g3
Ntp325
Rp326
(dp327
g25
g36
sg188
g313
sg189
Nsg214
g17
sg215
Nsbasg214
g56
sg215
Nsbasg214
g62
sg215
Nsbasg214
g140
sg215
Nsbasg214
g90
sg215
Nsbasg214
g83
sg215
Nsbasg214
g77
sg215
Nsbsg251
F-2417.715299025724
sg252
F-17.715299025724075
sg253
F1.0
sg254
F1.0
sg255
Nsg256
g257
sg260
Nsg261
F-2400.0
sg258
g259
sg262
I25
sbag1
(g2
g3
Ntp328
Rp329
(dp330
g7
g10
sg181
Nsg182
Nsg183
g1
(g184
g3
Ntp331
Rp332
(dp333
g25
g84
sg188
Nsg189
(lp334
g1
(g184
g3
Ntp335
Rp336
(dp337
g25
g96
sg188
g332
sg189
(lp338
g1
(g184
g3
Ntp339
Rp340
(dp341
g25
g96
sg188
g336
sg189
(lp342
g1
(g184
g3
Ntp343
Rp344
(dp345
g25
g96
sg188
g340
sg189
(lp346
g1
(g184
g3
Ntp347
Rp348
(dp349
g25
g167
sg188
g344
sg189
(lp350
g1
(g184
g3
Ntp351
Rp352
(dp353
g25
g112
sg188
g348
sg189
(lp354
g1
(g184
g3
Ntp355
Rp356
(dp357
g25
g26
sg188
g352
sg189
Nsg214
g17
sg215
Nsbag1
(g184
g3
Ntp358
Rp359
(dp360
g25
g40
sg188
g352
sg189
Nsg214
g17
sg215
Nsbasg214
g55
sg215
Nsbag1
(g184
g3
Ntp361
Rp362
(dp363
g25
g152
sg188
g348
sg189
(lp364
g1
(g184
g3
Ntp365
Rp366
(dp367
g25
g161
sg188
g362
sg189
Nsg214
g146
sg215
Nsbag1
(g184
g3
Ntp368
Rp369
(dp370
g25
g161
sg188
g362
sg189
Nsg214
g146
sg215
Nsbag1
(g184
g3
Ntp371
Rp372
(dp373
g25
g48
sg188
g362
sg189
Nsg214
g17
sg215
Nsbag1
(g184
g3
Ntp374
Rp375
(dp376
g25
g44
sg188
g362
sg189
Nsg214
g17
sg215
Nsbasg214
g56
sg215
Nsbag1
(g184
g3
Ntp377
Rp378
(dp379
g25
g152
sg188
g348
sg189
(lp380
g1
(g184
g3
Ntp381
Rp382
(dp383
g25
g161
sg188
g378
sg189
Nsg214
g146
sg215
Nsbag1
(g184
g3
Ntp384
Rp385
(dp386
g25
g161
sg188
g378
sg189
Nsg214
g146
sg215
Nsbag1
(g184
g3
Ntp387
Rp388
(dp389
g25
g44
sg188
g378
sg189
Nsg214
g17
sg215
Nsbag1
(g184
g3
Ntp390
Rp391
(dp392
g25
g36
sg188
g378
sg189
Nsg214
g17
sg215
Nsbasg214
g56
sg215
Nsbasg214
g62
sg215
Nsbasg214
g140
sg215
Nsbasg214
g90
sg215
Nsbasg214
g83
sg215
Nsbasg214
g77
sg215
Nsbsg251
F-2416.10586111329
sg252
F-16.10586111328998
sg253
F1.0
sg254
F1.0
sg255
Nsg256
g257
sg260
Nsg261
F-2400.0
sg258
g259
sg262
I25
sbag1
(g2
g3
Ntp393
Rp394
(dp395
g7
g10
sg181
Nsg182
Nsg183
g1
(g184
g3
Ntp396
Rp397
(dp398
g25
g84
sg188
Nsg189
(lp399
g1
(g184
g3
Ntp400
Rp401
(dp402
g25
g96
sg188
g397
sg189
(lp403
g1
(g184
g3
Ntp404
Rp405
(dp406
g25
g96
sg188
g401
sg189
(lp407
g1
(g184
g3
Ntp408
Rp409
(dp410
g25
g96
sg188
g405
sg189
(lp411
g1
(g184
g3
Ntp412
Rp413
(dp414
g25
g167
sg188
g409
sg189
(lp415
g1
(g184
g3
Ntp416
Rp417
(dp418
g25
g112
sg188
g413
sg189
(lp419
g1
(g184
g3
Ntp420
Rp421
(dp422
g25
g26
sg188
g417
sg189
Nsg214
g17
sg215
Nsbag1
(g184
g3
Ntp423
Rp424
(dp425
g25
g40
sg188
g417
sg189
Nsg214
g17
sg215
Nsbasg214
g55
sg215
Nsbag1
(g184
g3
Ntp426
Rp427
(dp428
g25
g152
sg188
g413
sg189
(lp429
g1
(g184
g3
Ntp430
Rp431
(dp432
g25
g161
sg188
g427
sg189
Nsg214
g146
sg215
Nsbag1
(g184
g3
Ntp433
Rp434
(dp435
g25
g161
sg188
g427
sg189
Nsg214
g146
sg215
Nsbag1
(g184
g3
Ntp436
Rp437
(dp438
g25
g48
sg188
g427
sg189
Nsg214
g17
sg215
Nsbag1
(g184
g3
Ntp439
Rp440
(dp441
g25
g44
sg188
g427
sg189
Nsg214
g17
sg215
Nsbasg214
g56
sg215
Nsbag1
(g184
g3
Ntp442
Rp443
(dp444
g25
g152
sg188
g413
sg189
(lp445
g1
(g184
g3
Ntp446
Rp447
(dp448
g25
g161
sg188
g443
sg189
Nsg214
g146
sg215
Nsbag1
(g184
g3
Ntp449
Rp450
(dp451
g25
g161
sg188
g443
sg189
Nsg214
g146
sg215
Nsbag1
(g184
g3
Ntp452
Rp453
(dp454
g25
g44
sg188
g443
sg189
Nsg214
g17
sg215
Nsbag1
(g184
g3
Ntp455
Rp456
(dp457
g25
g36
sg188
g443
sg189
Nsg214
g17
sg215
Nsbasg214
g56
sg215
Nsbasg214
g62
sg215
Nsbasg214
g140
sg215
Nsbasg214
g90
sg215
Nsbasg214
g83
sg215
Nsbasg214
g77
sg215
Nsbsg251
F-2416.10586111329
sg252
F-16.10586111328998
sg253
F1.0
sg254
F1.0
sg255
Nsg256
g257
sg260
Nsg261
F-2400.0
sg258
g259
sg262
I25
sbag394
ag394
ag1
(g2
g3
Ntp458
Rp459
(dp460
g7
g10
sg181
Nsg182
Nsg183
g1
(g184
g3
Ntp461
Rp462
(dp463
g25
g84
sg188
Nsg189
(lp464
g1
(g184
g3
Ntp465
Rp466
(dp467
g25
g96
sg188
g462
sg189
(lp468
g1
(g184
g3
Ntp469
Rp470
(dp471
g25
g96
sg188
g466
sg189
(lp472
g1
(g184
g3
Ntp473
Rp474
(dp475
g25
g96
sg188
g470
sg189
(lp476
g1
(g184
g3
Ntp477
Rp478
(dp479
g25
g167
sg188
g474
sg189
(lp480
g1
(g184
g3
Ntp481
Rp482
(dp483
g25
g112
sg188
g478
sg189
(lp484
g1
(g184
g3
Ntp485
Rp486
(dp487
g25
g26
sg188
g482
sg189
Nsg214
g17
sg215
Nsbag1
(g184
g3
Ntp488
Rp489
(dp490
g25
g40
sg188
g482
sg189
Nsg214
g17
sg215
Nsbasg214
g55
sg215
Nsbag1
(g184
g3
Ntp491
Rp492
(dp493
g25
g152
sg188
g478
sg189
(lp494
g1
(g184
g3
Ntp495
Rp496
(dp497
g25
g161
sg188
g492
sg189
Nsg214
g146
sg215
Nsbag1
(g184
g3
Ntp498
Rp499
(dp500
g25
g161
sg188
g492
sg189
Nsg214
g146
sg215
Nsbag1
(g184
g3
Ntp501
Rp502
(dp503
g25
g44
sg188
g492
sg189
Nsg214
g17
sg215
Nsbag1
(g184
g3
Ntp504
Rp505
(dp506
g25
g44
sg188
g492
sg189
Nsg214
g17
sg215
Nsbasg214
g56
sg215
Nsbag1
(g184
g3
Ntp507
Rp508
(dp509
g25
g152
sg188
g478
sg189
(lp510
g1
(g184
g3
Ntp511
Rp512
(dp513
g25
g161
sg188
g508
sg189
Nsg214
g146
sg215
Nsbag1
(g184
g3
Ntp514
Rp515
(dp516
g25
g161
sg188
g508
sg189
Nsg214
g146
sg215
Nsbag1
(g184
g3
Ntp517
Rp518
(dp519
g25
g44
sg188
g508
sg189
Nsg214
g17
sg215
Nsbag1
(g184
g3
Ntp520
Rp521
(dp522
g25
g36
sg188
g508
sg189
Nsg214
g17
sg215
Nsbasg214
g56
sg215
Nsbasg214
g62
sg215
Nsbasg214
g140
sg215
Nsbasg214
g90
sg215
Nsbasg214
g83
sg215
Nsbasg214
g77
sg215
Nsbsg251
F-2414.496423200856
sg252
F-14.496423200855878
sg253
F1.0
sg254
F1.0
sg255
Nsg256
g257
sg260
Nsg261
F-2400.0
sg258
g259
sg262
I25
sbag1
(g2
g3
Ntp523
Rp524
(dp525
g7
g10
sg181
Nsg182
Nsg183
g1
(g184
g3
Ntp526
Rp527
(dp528
g25
g84
sg188
Nsg189
(lp529
g1
(g184
g3
Ntp530
Rp531
(dp532
g25
g96
sg188
g527
sg189
(lp533
g1
(g184
g3
Ntp534
Rp535
(dp536
g25
g96
sg188
g531
sg189
(lp537
g1
(g184
g3
Ntp538
Rp539
(dp540
g25
g96
sg188
g535
sg189
(lp541
g1
(g184
g3
Ntp542
Rp543
(dp544
g25
g167
sg188
g539
sg189
(lp545
g1
(g184
g3
Ntp546
Rp547
(dp548
g25
g112
sg188
g543
sg189
(lp549
g1
(g184
g3
Ntp550
Rp551
(dp552
g25
g26
sg188
g547
sg189
Nsg214
g17
sg215
Nsbag1
(g184
g3
Ntp553
Rp554
(dp555
g25
g40
sg188
g547
sg189
Nsg214
g17
sg215
Nsbasg214
g55
sg215
Nsbag1
(g184
g3
Ntp556
Rp557
(dp558
g25
g152
sg188
g543
sg189
(lp559
g1
(g184
g3
Ntp560
Rp561
(dp562
g25
g161
sg188
g557
sg189
Nsg214
g146
sg215
Nsbag1
(g184
g3
Ntp563
Rp564
(dp565
g25
g161
sg188
g557
sg189
Nsg214
g146
sg215
Nsbag1
(g184
g3
Ntp566
Rp567
(dp568
g25
g44
sg188
g557
sg189
Nsg214
g17
sg215
Nsbag1
(g184
g3
Ntp569
Rp570
(dp571
g25
g44
sg188
g557
sg189
Nsg214
g17
sg215
Nsbasg214
g56
sg215
Nsbag1
(g184
g3
Ntp572
Rp573
(dp574
g25
g152
sg188
g543
sg189
(lp575
g1
(g184
g3
Ntp576
Rp577
(dp578
g25
g161
sg188
g573
sg189
Nsg214
g146
sg215
Nsbag1
(g184
g3
Ntp579
Rp580
(dp581
g25
g161
sg188
g573
sg189
Nsg214
g146
sg215
Nsbag1
(g184
g3
Ntp582
Rp583
(dp584
g25
g44
sg188
g573
sg189
Nsg214
g17
sg215
Nsbag1
(g184
g3
Ntp585
Rp586
(dp587
g25
g36
sg188
g573
sg189
Nsg214
g17
sg215
Nsbasg214
g56
sg215
Nsbasg214
g62
sg215
Nsbasg214
g140
sg215
Nsbasg214
g90
sg215
Nsbasg214
g83
sg215
Nsbasg214
g77
sg215
Nsbsg251
F-2414.496423200856
sg252
F-14.496423200855878
sg253
F1.0
sg254
F1.0
sg255
Nsg256
g257
sg260
Nsg261
F-2400.0
sg258
g259
sg262
I25
sbag1
(g2
g3
Ntp588
Rp589
(dp590
g7
g10
sg181
Nsg182
Nsg183
g1
(g184
g3
Ntp591
Rp592
(dp593
g25
g84
sg188
Nsg189
(lp594
g1
(g184
g3
Ntp595
Rp596
(dp597
g25
g96
sg188
g592
sg189
(lp598
g1
(g184
g3
Ntp599
Rp600
(dp601
g25
g96
sg188
g596
sg189
(lp602
g1
(g184
g3
Ntp603
Rp604
(dp605
g25
g96
sg188
g600
sg189
(lp606
g1
(g184
g3
Ntp607
Rp608
(dp609
g25
g167
sg188
g604
sg189
(lp610
g1
(g184
g3
Ntp611
Rp612
(dp613
g25
g112
sg188
g608
sg189
(lp614
g1
(g184
g3
Ntp615
Rp616
(dp617
g25
g26
sg188
g612
sg189
Nsg214
g17
sg215
Nsbag1
(g184
g3
Ntp618
Rp619
(dp620
g25
g40
sg188
g612
sg189
Nsg214
g17
sg215
Nsbasg214
g55
sg215
Nsbag1
(g184
g3
Ntp621
Rp622
(dp623
g25
g152
sg188
g608
sg189
(lp624
g1
(g184
g3
Ntp625
Rp626
(dp627
g25
g161
sg188
g622
sg189
Nsg214
g146
sg215
Nsbag1
(g184
g3
Ntp628
Rp629
(dp630
g25
g161
sg188
g622
sg189
Nsg214
g146
sg215
Nsbag1
(g184
g3
Ntp631
Rp632
(dp633
g25
g44
sg188
g622
sg189
Nsg214
g17
sg215
Nsbag1
(g184
g3
Ntp634
Rp635
(dp636
g25
g44
sg188
g622
sg189
Nsg214
g17
sg215
Nsbasg214
g56
sg215
Nsbag1
(g184
g3
Ntp637
Rp638
(dp639
g25
g152
sg188
g608
sg189
(lp640
g1
(g184
g3
Ntp641
Rp642
(dp643
g25
g161
sg188
g638
sg189
Nsg214
g146
sg215
Nsbag1
(g184
g3
Ntp644
Rp645
(dp646
g25
g161
sg188
g638
sg189
Nsg214
g146
sg215
Nsbag1
(g184
g3
Ntp647
Rp648
(dp649
g25
g44
sg188
g638
sg189
Nsg214
g17
sg215
Nsbag1
(g184
g3
Ntp650
Rp651
(dp652
g25
g36
sg188
g638
sg189
Nsg214
g17
sg215
Nsbasg214
g56
sg215
Nsbasg214
g62
sg215
Nsbasg214
g140
sg215
Nsbasg214
g90
sg215
Nsbasg214
g83
sg215
Nsbasg214
g77
sg215
Nsbsg251
F-2414.496423200856
sg252
F-14.496423200855878
sg253
F1.0
sg254
F1.0
sg255
Nsg256
g257
sg260
Nsg261
F-2400.0
sg258
g259
sg262
I25
sbag1
(g2
g3
Ntp653
Rp654
(dp655
g7
g10
sg181
Nsg182
Nsg183
g1
(g184
g3
Ntp656
Rp657
(dp658
g25
g84
sg188
Nsg189
(lp659
g1
(g184
g3
Ntp660
Rp661
(dp662
g25
g96
sg188
g657
sg189
(lp663
g1
(g184
g3
Ntp664
Rp665
(dp666
g25
g96
sg188
g661
sg189
(lp667
g1
(g184
g3
Ntp668
Rp669
(dp670
g25
g96
sg188
g665
sg189
(lp671
g1
(g184
g3
Ntp672
Rp673
(dp674
g25
g167
sg188
g669
sg189
(lp675
g1
(g184
g3
Ntp676
Rp677
(dp678
g25
g112
sg188
g673
sg189
(lp679
g1
(g184
g3
Ntp680
Rp681
(dp682
g25
g26
sg188
g677
sg189
Nsg214
g17
sg215
Nsbag1
(g184
g3
Ntp683
Rp684
(dp685
g25
g40
sg188
g677
sg189
Nsg214
g17
sg215
Nsbasg214
g55
sg215
Nsbag1
(g184
g3
Ntp686
Rp687
(dp688
g25
g152
sg188
g673
sg189
(lp689
g1
(g184
g3
Ntp690
Rp691
(dp692
g25
g161
sg188
g687
sg189
Nsg214
g146
sg215
Nsbag1
(g184
g3
Ntp693
Rp694
(dp695
g25
g161
sg188
g687
sg189
Nsg214
g146
sg215
Nsbag1
(g184
g3
Ntp696
Rp697
(dp698
g25
g44
sg188
g687
sg189
Nsg214
g17
sg215
Nsbag1
(g184
g3
Ntp699
Rp700
(dp701
g25
g44
sg188
g687
sg189
Nsg214
g17
sg215
Nsbasg214
g56
sg215
Nsbag1
(g184
g3
Ntp702
Rp703
(dp704
g25
g152
sg188
g673
sg189
(lp705
g1
(g184
g3
Ntp706
Rp707
(dp708
g25
g161
sg188
g703
sg189
Nsg214
g146
sg215
Nsbag1
(g184
g3
Ntp709
Rp710
(dp711
g25
g161
sg188
g703
sg189
Nsg214
g146
sg215
Nsbag1
(g184
g3
Ntp712
Rp713
(dp714
g25
g44
sg188
g703
sg189
Nsg214
g17
sg215
Nsbag1
(g184
g3
Ntp715
Rp716
(dp717
g25
g36
sg188
g703
sg189
Nsg214
g17
sg215
Nsbasg214
g56
sg215
Nsbasg214
g62
sg215
Nsbasg214
g140
sg215
Nsbasg214
g90
sg215
Nsbasg214
g83
sg215
Nsbasg214
g77
sg215
Nsbsg251
F-2414.496423200856
sg252
F-14.496423200855878
sg253
F1.0
sg254
F1.0
sg255
Nsg256
g257
sg260
Nsg261
F-2400.0
sg258
g259
sg262
I25
sbag1
(g2
g3
Ntp718
Rp719
(dp720
g7
g10
sg181
Nsg182
Nsg183
g1
(g184
g3
Ntp721
Rp722
(dp723
g25
g84
sg188
Nsg189
(lp724
g1
(g184
g3
Ntp725
Rp726
(dp727
g25
g96
sg188
g722
sg189
(lp728
g1
(g184
g3
Ntp729
Rp730
(dp731
g25
g96
sg188
g726
sg189
(lp732
g1
(g184
g3
Ntp733
Rp734
(dp735
g25
g96
sg188
g730
sg189
(lp736
g1
(g184
g3
Ntp737
Rp738
(dp739
g25
g167
sg188
g734
sg189
(lp740
g1
(g184
g3
Ntp741
Rp742
(dp743
g25
g112
sg188
g738
sg189
(lp744
g1
(g184
g3
Ntp745
Rp746
(dp747
g25
g26
sg188
g742
sg189
Nsg214
g17
sg215
Nsbag1
(g184
g3
Ntp748
Rp749
(dp750
g25
g40
sg188
g742
sg189
Nsg214
g17
sg215
Nsbasg214
g55
sg215
Nsbag1
(g184
g3
Ntp751
Rp752
(dp753
g25
g152
sg188
g738
sg189
(lp754
g1
(g184
g3
Ntp755
Rp756
(dp757
g25
g161
sg188
g752
sg189
Nsg214
g146
sg215
Nsbag1
(g184
g3
Ntp758
Rp759
(dp760
g25
g161
sg188
g752
sg189
Nsg214
g146
sg215
Nsbag1
(g184
g3
Ntp761
Rp762
(dp763
g25
g44
sg188
g752
sg189
Nsg214
g17
sg215
Nsbag1
(g184
g3
Ntp764
Rp765
(dp766
g25
g44
sg188
g752
sg189
Nsg214
g17
sg215
Nsbasg214
g56
sg215
Nsbag1
(g184
g3
Ntp767
Rp768
(dp769
g25
g152
sg188
g738
sg189
(lp770
g1
(g184
g3
Ntp771
Rp772
(dp773
g25
g161
sg188
g768
sg189
Nsg214
g146
sg215
Nsbag1
(g184
g3
Ntp774
Rp775
(dp776
g25
g161
sg188
g768
sg189
Nsg214
g146
sg215
Nsbag1
(g184
g3
Ntp777
Rp778
(dp779
g25
g44
sg188
g768
sg189
Nsg214
g17
sg215
Nsbag1
(g184
g3
Ntp780
Rp781
(dp782
g25
g36
sg188
g768
sg189
Nsg214
g17
sg215
Nsbasg214
g56
sg215
Nsbasg214
g62
sg215
Nsbasg214
g140
sg215
Nsbasg214
g90
sg215
Nsbasg214
g83
sg215
Nsbasg214
g77
sg215
Nsbsg251
F-2414.496423200856
sg252
F-14.496423200855878
sg253
F1.0
sg254
F1.0
sg255
Nsg256
g257
sg260
Nsg261
F-2400.0
sg258
g259
sg262
I25
sbag1
(g2
g3
Ntp783
Rp784
(dp785
g7
g10
sg181
Nsg182
Nsg183
g1
(g184
g3
Ntp786
Rp787
(dp788
g25
g84
sg188
Nsg189
(lp789
g1
(g184
g3
Ntp790
Rp791
(dp792
g25
g96
sg188
g787
sg189
(lp793
g1
(g184
g3
Ntp794
Rp795
(dp796
g25
g96
sg188
g791
sg189
(lp797
g1
(g184
g3
Ntp798
Rp799
(dp800
g25
g96
sg188
g795
sg189
(lp801
g1
(g184
g3
Ntp802
Rp803
(dp804
g25
g167
sg188
g799
sg189
(lp805
g1
(g184
g3
Ntp806
Rp807
(dp808
g25
g112
sg188
g803
sg189
(lp809
g1
(g184
g3
Ntp810
Rp811
(dp812
g25
g26
sg188
g807
sg189
Nsg214
g17
sg215
Nsbag1
(g184
g3
Ntp813
Rp814
(dp815
g25
g40
sg188
g807
sg189
Nsg214
g17
sg215
Nsbasg214
g55
sg215
Nsbag1
(g184
g3
Ntp816
Rp817
(dp818
g25
g152
sg188
g803
sg189
(lp819
g1
(g184
g3
Ntp820
Rp821
(dp822
g25
g161
sg188
g817
sg189
Nsg214
g146
sg215
Nsbag1
(g184
g3
Ntp823
Rp824
(dp825
g25
g161
sg188
g817
sg189
Nsg214
g146
sg215
Nsbag1
(g184
g3
Ntp826
Rp827
(dp828
g25
g44
sg188
g817
sg189
Nsg214
g17
sg215
Nsbag1
(g184
g3
Ntp829
Rp830
(dp831
g25
g44
sg188
g817
sg189
Nsg214
g17
sg215
Nsbasg214
g56
sg215
Nsbag1
(g184
g3
Ntp832
Rp833
(dp834
g25
g152
sg188
g803
sg189
(lp835
g1
(g184
g3
Ntp836
Rp837
(dp838
g25
g161
sg188
g833
sg189
Nsg214
g146
sg215
Nsbag1
(g184
g3
Ntp839
Rp840
(dp841
g25
g161
sg188
g833
sg189
Nsg214
g146
sg215
Nsbag1
(g184
g3
Ntp842
Rp843
(dp844
g25
g44
sg188
g833
sg189
Nsg214
g17
sg215
Nsbag1
(g184
g3
Ntp845
Rp846
(dp847
g25
g44
sg188
g833
sg189
Nsg214
g17
sg215
Nsbasg214
g56
sg215
Nsbasg214
g62
sg215
Nsbasg214
g140
sg215
Nsbasg214
g90
sg215
Nsbasg214
g83
sg215
Nsbasg214
g77
sg215
Nsbsg251
F-2412.886985288422
sg252
F-12.886985288421778
sg253
F1.0
sg254
F1.0
sg255
Nsg256
g257
sg260
Nsg261
F-2400.0
sg258
g259
sg262
I25
sbag1
(g2
g3
Ntp848
Rp849
(dp850
g7
g10
sg181
Nsg182
Nsg183
g1
(g184
g3
Ntp851
Rp852
(dp853
g25
g84
sg188
Nsg189
(lp854
g1
(g184
g3
Ntp855
Rp856
(dp857
g25
g96
sg188
g852
sg189
(lp858
g1
(g184
g3
Ntp859
Rp860
(dp861
g25
g96
sg188
g856
sg189
(lp862
g1
(g184
g3
Ntp863
Rp864
(dp865
g25
g96
sg188
g860
sg189
(lp866
g1
(g184
g3
Ntp867
Rp868
(dp869
g25
g57
sg188
g864
sg189
(lp870
g1
(g184
g3
Ntp871
Rp872
(dp873
g25
g107
sg188
g868
sg189
(lp874
g1
(g184
g3
Ntp875
Rp876
(dp877
g25
g40
sg188
g872
sg189
Nsg214
g17
sg215
Nsbag1
(g184
g3
Ntp878
Rp879
(dp880
g25
g72
sg188
g872
sg189
Nsg214
g63
sg215
Nsbasg214
g55
sg215
Nsbag1
(g184
g3
Ntp881
Rp882
(dp883
g25
g152
sg188
g868
sg189
(lp884
g1
(g184
g3
Ntp885
Rp886
(dp887
g25
g161
sg188
g882
sg189
Nsg214
g146
sg215
Nsbag1
(g184
g3
Ntp888
Rp889
(dp890
g25
g161
sg188
g882
sg189
Nsg214
g146
sg215
Nsbag1
(g184
g3
Ntp891
Rp892
(dp893
g25
g26
sg188
g882
sg189
Nsg214
g17
sg215
Nsbag1
(g184
g3
Ntp894
Rp895
(dp896
g25
g44
sg188
g882
sg189
Nsg214
g17
sg215
Nsbasg214
g56
sg215
Nsbasg214
g49
sg215
Nsbasg214
g140
sg215
Nsbasg214
g90
sg215
Nsbasg214
g83
sg215
Nsbasg214
g77
sg215
Nsbsg251
F-2411.8573658712407
sg252
F-11.857365871240619
sg253
F1.0
sg254
F1.0
sg255
Nsg256
g257
sg260
Nsg261
F-2400.0
sg258
g259
sg262
I25
sbag849
ag1
(g2
g3
Ntp897
Rp898
(dp899
g7
g10
sg181
Nsg182
Nsg183
g1
(g184
g3
Ntp900
Rp901
(dp902
g25
g84
sg188
Nsg189
(lp903
g1
(g184
g3
Ntp904
Rp905
(dp906
g25
g96
sg188
g901
sg189
(lp907
g1
(g184
g3
Ntp908
Rp909
(dp910
g25
g96
sg188
g905
sg189
(lp911
g1
(g184
g3
Ntp912
Rp913
(dp914
g25
g96
sg188
g909
sg189
(lp915
g1
(g184
g3
Ntp916
Rp917
(dp918
g25
g57
sg188
g913
sg189
(lp919
g1
(g184
g3
Ntp920
Rp921
(dp922
g25
g107
sg188
g917
sg189
(lp923
g1
(g184
g3
Ntp924
Rp925
(dp926
g25
g40
sg188
g921
sg189
Nsg214
g17
sg215
Nsbag1
(g184
g3
Ntp927
Rp928
(dp929
g25
g72
sg188
g921
sg189
Nsg214
g63
sg215
Nsbasg214
g55
sg215
Nsbag1
(g184
g3
Ntp930
Rp931
(dp932
g25
g152
sg188
g917
sg189
(lp933
g1
(g184
g3
Ntp934
Rp935
(dp936
g25
g161
sg188
g931
sg189
Nsg214
g146
sg215
Nsbag1
(g184
g3
Ntp937
Rp938
(dp939
g25
g161
sg188
g931
sg189
Nsg214
g146
sg215
Nsbag1
(g184
g3
Ntp940
Rp941
(dp942
g25
g44
sg188
g931
sg189
Nsg214
g17
sg215
Nsbag1
(g184
g3
Ntp943
Rp944
(dp945
g25
g44
sg188
g931
sg189
Nsg214
g17
sg215
Nsbasg214
g56
sg215
Nsbasg214
g49
sg215
Nsbasg214
g140
sg215
Nsbasg214
g90
sg215
Nsbasg214
g83
sg215
Nsbasg214
g77
sg215
Nsbsg251
F-2410.2479279588065
sg252
F-10.24792795880652
sg253
F1.0
sg254
F1.0
sg255
Nsg256
g257
sg260
Nsg261
F-2400.0
sg258
g259
sg262
I25
sbag1
(g2
g3
Ntp946
Rp947
(dp948
g7
g10
sg181
Nsg182
Nsg183
g1
(g184
g3
Ntp949
Rp950
(dp951
g25
g84
sg188
Nsg189
(lp952
g1
(g184
g3
Ntp953
Rp954
(dp955
g25
g96
sg188
g950
sg189
(lp956
g1
(g184
g3
Ntp957
Rp958
(dp959
g25
g96
sg188
g954
sg189
(lp960
g1
(g184
g3
Ntp961
Rp962
(dp963
g25
g96
sg188
g958
sg189
(lp964
g1
(g184
g3
Ntp965
Rp966
(dp967
g25
g57
sg188
g962
sg189
(lp968
g1
(g184
g3
Ntp969
Rp970
(dp971
g25
g107
sg188
g966
sg189
(lp972
g1
(g184
g3
Ntp973
Rp974
(dp975
g25
g40
sg188
g970
sg189
Nsg214
g17
sg215
Nsbag1
(g184
g3
Ntp976
Rp977
(dp978
g25
g72
sg188
g970
sg189
Nsg214
g63
sg215
Nsbasg214
g55
sg215
Nsbag1
(g184
g3
Ntp979
Rp980
(dp981
g25
g152
sg188
g966
sg189
(lp982
g1
(g184
g3
Ntp983
Rp984
(dp985
g25
g161
sg188
g980
sg189
Nsg214
g146
sg215
Nsbag1
(g184
g3
Ntp986
Rp987
(dp988
g25
g161
sg188
g980
sg189
Nsg214
g146
sg215
Nsbag1
(g184
g3
Ntp989
Rp990
(dp991
g25
g44
sg188
g980
sg189
Nsg214
g17
sg215
Nsbag1
(g184
g3
Ntp992
Rp993
(dp994
g25
g44
sg188
g980
sg189
Nsg214
g17
sg215
Nsbasg214
g56
sg215
Nsbasg214
g49
sg215
Nsbasg214
g140
sg215
Nsbasg214
g90
sg215
Nsbasg214
g83
sg215
Nsbasg214
g77
sg215
Nsbsg251
F-2410.2479279588065
sg252
F-10.24792795880652
sg253
F1.0
sg254
F1.0
sg255
Nsg256
g257
sg260
Nsg261
F-2400.0
sg258
g259
sg262
I25
sbag1
(g2
g3
Ntp995
Rp996
(dp997
g7
g10
sg181
Nsg182
Nsg183
g1
(g184
g3
Ntp998
Rp999
(dp1000
g25
g84
sg188
Nsg189
(lp1001
g1
(g184
g3
Ntp1002
Rp1003
(dp1004
g25
g96
sg188
g999
sg189
(lp1005
g1
(g184
g3
Ntp1006
Rp1007
(dp1008
g25
g96
sg188
g1003
sg189
(lp1009
g1
(g184
g3
Ntp1010
Rp1011
(dp1012
g25
g96
sg188
g1007
sg189
(lp1013
g1
(g184
g3
Ntp1014
Rp1015
(dp1016
g25
g57
sg188
g1011
sg189
(lp1017
g1
(g184
g3
Ntp1018
Rp1019
(dp1020
g25
g107
sg188
g1015
sg189
(lp1021
g1
(g184
g3
Ntp1022
Rp1023
(dp1024
g25
g40
sg188
g1019
sg189
Nsg214
g17
sg215
Nsbag1
(g184
g3
Ntp1025
Rp1026
(dp1027
g25
g72
sg188
g1019
sg189
Nsg214
g63
sg215
Nsbasg214
g55
sg215
Nsbag1
(g184
g3
Ntp1028
Rp1029
(dp1030
g25
g152
sg188
g1015
sg189
(lp1031
g1
(g184
g3
Ntp1032
Rp1033
(dp1034
g25
g161
sg188
g1029
sg189
Nsg214
g146
sg215
Nsbag1
(g184
g3
Ntp1035
Rp1036
(dp1037
g25
g161
sg188
g1029
sg189
Nsg214
g146
sg215
Nsbag1
(g184
g3
Ntp1038
Rp1039
(dp1040
g25
g44
sg188
g1029
sg189
Nsg214
g17
sg215
Nsbag1
(g184
g3
Ntp1041
Rp1042
(dp1043
g25
g44
sg188
g1029
sg189
Nsg214
g17
sg215
Nsbasg214
g56
sg215
Nsbasg214
g49
sg215
Nsbasg214
g140
sg215
Nsbasg214
g90
sg215
Nsbasg214
g83
sg215
Nsbasg214
g77
sg215
Nsbsg251
F-2410.2479279588065
sg252
F-10.24792795880652
sg253
F1.0
sg254
F1.0
sg255
Nsg256
g257
sg260
Nsg261
F-2400.0
sg258
g259
sg262
I25
sbag996
ag996
ag1
(g2
g3
Ntp1044
Rp1045
(dp1046
g7
g10
sg181
Nsg182
Nsg183
g1
(g184
g3
Ntp1047
Rp1048
(dp1049
g25
g84
sg188
Nsg189
(lp1050
g1
(g184
g3
Ntp1051
Rp1052
(dp1053
g25
g96
sg188
g1048
sg189
(lp1054
g1
(g184
g3
Ntp1055
Rp1056
(dp1057
g25
g96
sg188
g1052
sg189
(lp1058
g1
(g184
g3
Ntp1059
Rp1060
(dp1061
g25
g96
sg188
g1056
sg189
(lp1062
g1
(g184
g3
Ntp1063
Rp1064
(dp1065
g25
g57
sg188
g1060
sg189
(lp1066
g1
(g184
g3
Ntp1067
Rp1068
(dp1069
g25
g112
sg188
g1064
sg189
(lp1070
g1
(g184
g3
Ntp1071
Rp1072
(dp1073
g25
g40
sg188
g1068
sg189
Nsg214
g17
sg215
Nsbag1
(g184
g3
Ntp1074
Rp1075
(dp1076
g25
g44
sg188
g1068
sg189
Nsg214
g17
sg215
Nsbasg214
g55
sg215
Nsbag1
(g184
g3
Ntp1077
Rp1078
(dp1079
g25
g167
sg188
g1064
sg189
(lp1080
g1
(g184
g3
Ntp1081
Rp1082
(dp1083
g25
g107
sg188
g1078
sg189
(lp1084
g1
(g184
g3
Ntp1085
Rp1086
(dp1087
g25
g48
sg188
g1082
sg189
Nsg214
g17
sg215
Nsbag1
(g184
g3
Ntp1088
Rp1089
(dp1090
g25
g76
sg188
g1082
sg189
Nsg214
g63
sg215
Nsbasg214
g55
sg215
Nsbag1
(g184
g3
Ntp1091
Rp1092
(dp1093
g25
g152
sg188
g1078
sg189
(lp1094
g1
(g184
g3
Ntp1095
Rp1096
(dp1097
g25
g161
sg188
g1092
sg189
Nsg214
g146
sg215
Nsbag1
(g184
g3
Ntp1098
Rp1099
(dp1100
g25
g161
sg188
g1092
sg189
Nsg214
g146
sg215
Nsbag1
(g184
g3
Ntp1101
Rp1102
(dp1103
g25
g32
sg188
g1092
sg189
Nsg214
g17
sg215
Nsbag1
(g184
g3
Ntp1104
Rp1105
(dp1106
g25
g44
sg188
g1092
sg189
Nsg214
g17
sg215
Nsbasg214
g56
sg215
Nsbag1
(g184
g3
Ntp1107
Rp1108
(dp1109
g25
g156
sg188
g1078
sg189
Nsg214
g56
sg215
Nsbasg214
g62
sg215
Nsbasg214
g49
sg215
Nsbasg214
g140
sg215
Nsbasg214
g90
sg215
Nsbasg214
g83
sg215
Nsbasg214
g77
sg215
Nsbsg251
F-2419.8435307315735
sg252
F-19.843530731573342
sg253
F1.0
sg254
F1.0
sg255
Nsg256
g257
sg260
Nsg261
F-2400.0
sg258
g259
sg262
I25
sbag1
(g2
g3
Ntp1110
Rp1111
(dp1112
g7
g10
sg181
Nsg182
Nsg183
g1
(g184
g3
Ntp1113
Rp1114
(dp1115
g25
g84
sg188
Nsg189
(lp1116
g1
(g184
g3
Ntp1117
Rp1118
(dp1119
g25
g96
sg188
g1114
sg189
(lp1120
g1
(g184
g3
Ntp1121
Rp1122
(dp1123
g25
g96
sg188
g1118
sg189
(lp1124
g1
(g184
g3
Ntp1125
Rp1126
(dp1127
g25
g96
sg188
g1122
sg189
(lp1128
g1
(g184
g3
Ntp1129
Rp1130
(dp1131
g25
g57
sg188
g1126
sg189
(lp1132
g1
(g184
g3
Ntp1133
Rp1134
(dp1135
g25
g112
sg188
g1130
sg189
(lp1136
g1
(g184
g3
Ntp1137
Rp1138
(dp1139
g25
g40
sg188
g1134
sg189
Nsg214
g17
sg215
Nsbag1
(g184
g3
Ntp1140
Rp1141
(dp1142
g25
g44
sg188
g1134
sg189
Nsg214
g17
sg215
Nsbasg214
g55
sg215
Nsbag1
(g184
g3
Ntp1143
Rp1144
(dp1145
g25
g167
sg188
g1130
sg189
(lp1146
g1
(g184
g3
Ntp1147
Rp1148
(dp1149
g25
g107
sg188
g1144
sg189
(lp1150
g1
(g184
g3
Ntp1151
Rp1152
(dp1153
g25
g48
sg188
g1148
sg189
Nsg214
g17
sg215
Nsbag1
(g184
g3
Ntp1154
Rp1155
(dp1156
g25
g76
sg188
g1148
sg189
Nsg214
g63
sg215
Nsbasg214
g55
sg215
Nsbag1
(g184
g3
Ntp1157
Rp1158
(dp1159
g25
g152
sg188
g1144
sg189
(lp1160
g1
(g184
g3
Ntp1161
Rp1162
(dp1163
g25
g161
sg188
g1158
sg189
Nsg214
g146
sg215
Nsbag1
(g184
g3
Ntp1164
Rp1165
(dp1166
g25
g161
sg188
g1158
sg189
Nsg214
g146
sg215
Nsbag1
(g184
g3
Ntp1167
Rp1168
(dp1169
g25
g32
sg188
g1158
sg189
Nsg214
g17
sg215
Nsbag1
(g184
g3
Ntp1170
Rp1171
(dp1172
g25
g44
sg188
g1158
sg189
Nsg214
g17
sg215
Nsbasg214
g56
sg215
Nsbag1
(g184
g3
Ntp1173
Rp1174
(dp1175
g25
g156
sg188
g1144
sg189
Nsg214
g56
sg215
Nsbasg214
g62
sg215
Nsbasg214
g49
sg215
Nsbasg214
g140
sg215
Nsbasg214
g90
sg215
Nsbasg214
g83
sg215
Nsbasg214
g77
sg215
Nsbsg251
F-2419.8435307315735
sg252
F-19.843530731573342
sg253
F1.0
sg254
F1.0
sg255
Nsg256
g257
sg260
Nsg261
F-2400.0
sg258
g259
sg262
I25
sbag1
(g2
g3
Ntp1176
Rp1177
(dp1178
g7
g10
sg181
Nsg182
Nsg183
g1
(g184
g3
Ntp1179
Rp1180
(dp1181
g25
g84
sg188
Nsg189
(lp1182
g1
(g184
g3
Ntp1183
Rp1184
(dp1185
g25
g96
sg188
g1180
sg189
(lp1186
g1
(g184
g3
Ntp1187
Rp1188
(dp1189
g25
g96
sg188
g1184
sg189
(lp1190
g1
(g184
g3
Ntp1191
Rp1192
(dp1193
g25
g96
sg188
g1188
sg189
(lp1194
g1
(g184
g3
Ntp1195
Rp1196
(dp1197
g25
g57
sg188
g1192
sg189
(lp1198
g1
(g184
g3
Ntp1199
Rp1200
(dp1201
g25
g102
sg188
g1196
sg189
(lp1202
g1
(g184
g3
Ntp1203
Rp1204
(dp1205
g25
g26
sg188
g1200
sg189
Nsg214
g17
sg215
Nsbag1
(g184
g3
Ntp1206
Rp1207
(dp1208
g25
g72
sg188
g1200
sg189
Nsg214
g63
sg215
Nsbasg214
g55
sg215
Nsbag1
(g184
g3
Ntp1209
Rp1210
(dp1211
g25
g156
sg188
g1196
sg189
Nsg214
g56
sg215
Nsbasg214
g49
sg215
Nsbasg214
g140
sg215
Nsbasg214
g90
sg215
Nsbasg214
g83
sg215
Nsbasg214
g77
sg215
Nsbsg251
F-2411.1642186906806
sg252
F-11.164218690680674
sg253
F1.0
sg254
F1.0
sg255
Nsg256
g257
sg260
Nsg261
F-2400.0
sg258
g259
sg262
I25
sbag1
(g2
g3
Ntp1212
Rp1213
(dp1214
g7
g10
sg181
Nsg182
Nsg183
g1
(g184
g3
Ntp1215
Rp1216
(dp1217
g25
g84
sg188
Nsg189
(lp1218
g1
(g184
g3
Ntp1219
Rp1220
(dp1221
g25
g96
sg188
g1216
sg189
(lp1222
g1
(g184
g3
Ntp1223
Rp1224
(dp1225
g25
g96
sg188
g1220
sg189
(lp1226
g1
(g184
g3
Ntp1227
Rp1228
(dp1229
g25
g96
sg188
g1224
sg189
(lp1230
g1
(g184
g3
Ntp1231
Rp1232
(dp1233
g25
g167
sg188
g1228
sg189
(lp1234
g1
(g184
g3
Ntp1235
Rp1236
(dp1237
g25
g102
sg188
g1232
sg189
(lp1238
g1
(g184
g3
Ntp1239
Rp1240
(dp1241
g25
g26
sg188
g1236
sg189
Nsg214
g17
sg215
Nsbag1
(g184
g3
Ntp1242
Rp1243
(dp1244
g25
g68
sg188
g1236
sg189
Nsg214
g63
sg215
Nsbasg214
g55
sg215
Nsbag1
(g184
g3
Ntp1245
Rp1246
(dp1247
g25
g152
sg188
g1232
sg189
(lp1248
g1
(g184
g3
Ntp1249
Rp1250
(dp1251
g25
g161
sg188
g1246
sg189
Nsg214
g146
sg215
Nsbag1
(g184
g3
Ntp1252
Rp1253
(dp1254
g25
g161
sg188
g1246
sg189
Nsg214
g146
sg215
Nsbag1
(g184
g3
Ntp1255
Rp1256
(dp1257
g25
g44
sg188
g1246
sg189
Nsg214
g17
sg215
Nsbag1
(g184
g3
Ntp1258
Rp1259
(dp1260
g25
g44
sg188
g1246
sg189
Nsg214
g17
sg215
Nsbasg214
g56
sg215
Nsbag1
(g184
g3
Ntp1261
Rp1262
(dp1263
g25
g152
sg188
g1232
sg189
(lp1264
g1
(g184
g3
Ntp1265
Rp1266
(dp1267
g25
g161
sg188
g1262
sg189
Nsg214
g146
sg215
Nsbag1
(g184
g3
Ntp1268
Rp1269
(dp1270
g25
g161
sg188
g1262
sg189
Nsg214
g146
sg215
Nsbag1
(g184
g3
Ntp1271
Rp1272
(dp1273
g25
g32
sg188
g1262
sg189
Nsg214
g17
sg215
Nsbag1
(g184
g3
Ntp1274
Rp1275
(dp1276
g25
g44
sg188
g1262
sg189
Nsg214
g17
sg215
Nsbasg214
g56
sg215
Nsbasg214
g62
sg215
Nsbasg214
g140
sg215
Nsbasg214
g90
sg215
Nsbasg214
g83
sg215
Nsbasg214
g77
sg215
Nsbsg251
F-2413.29245039653
sg252
F-13.292450396529942
sg253
F1.0
sg254
F1.0
sg255
Nsg256
g257
sg260
Nsg261
F-2400.0
sg258
g259
sg262
I25
sbag1
(g2
g3
Ntp1277
Rp1278
(dp1279
g7
g10
sg181
Nsg182
Nsg183
g1
(g184
g3
Ntp1280
Rp1281
(dp1282
g25
g84
sg188
Nsg189
(lp1283
g1
(g184
g3
Ntp1284
Rp1285
(dp1286
g25
g96
sg188
g1281
sg189
(lp1287
g1
(g184
g3
Ntp1288
Rp1289
(dp1290
g25
g96
sg188
g1285
sg189
(lp1291
g1
(g184
g3
Ntp1292
Rp1293
(dp1294
g25
g96
sg188
g1289
sg189
(lp1295
g1
(g184
g3
Ntp1296
Rp1297
(dp1298
g25
g167
sg188
g1293
sg189
(lp1299
g1
(g184
g3
Ntp1300
Rp1301
(dp1302
g25
g102
sg188
g1297
sg189
(lp1303
g1
(g184
g3
Ntp1304
Rp1305
(dp1306
g25
g26
sg188
g1301
sg189
Nsg214
g17
sg215
Nsbag1
(g184
g3
Ntp1307
Rp1308
(dp1309
g25
g68
sg188
g1301
sg189
Nsg214
g63
sg215
Nsbasg214
g55
sg215
Nsbag1
(g184
g3
Ntp1310
Rp1311
(dp1312
g25
g152
sg188
g1297
sg189
(lp1313
g1
(g184
g3
Ntp1314
Rp1315
(dp1316
g25
g161
sg188
g1311
sg189
Nsg214
g146
sg215
Nsbag1
(g184
g3
Ntp1317
Rp1318
(dp1319
g25
g161
sg188
g1311
sg189
Nsg214
g146
sg215
Nsbag1
(g184
g3
Ntp1320
Rp1321
(dp1322
g25
g44
sg188
g1311
sg189
Nsg214
g17
sg215
Nsbag1
(g184
g3
Ntp1323
Rp1324
(dp1325
g25
g44
sg188
g1311
sg189
Nsg214
g17
sg215
Nsbasg214
g56
sg215
Nsbag1
(g184
g3
Ntp1326
Rp1327
(dp1328
g25
g152
sg188
g1297
sg189
(lp1329
g1
(g184
g3
Ntp1330
Rp1331
(dp1332
g25
g161
sg188
g1327
sg189
Nsg214
g146
sg215
Nsbag1
(g184
g3
Ntp1333
Rp1334
(dp1335
g25
g161
sg188
g1327
sg189
Nsg214
g146
sg215
Nsbag1
(g184
g3
Ntp1336
Rp1337
(dp1338
g25
g44
sg188
g1327
sg189
Nsg214
g17
sg215
Nsbag1
(g184
g3
Ntp1339
Rp1340
(dp1341
g25
g44
sg188
g1327
sg189
Nsg214
g17
sg215
Nsbasg214
g56
sg215
Nsbasg214
g62
sg215
Nsbasg214
g140
sg215
Nsbasg214
g90
sg215
Nsbasg214
g83
sg215
Nsbasg214
g77
sg215
Nsbsg251
F-2411.683012484096
sg252
F-11.683012484095842
sg253
F1.0
sg254
F1.0
sg255
Nsg256
g257
sg260
Nsg261
F-2400.0
sg258
g259
sg262
I25
sbag1
(g2
g3
Ntp1342
Rp1343
(dp1344
g7
g10
sg181
Nsg182
Nsg183
g1
(g184
g3
Ntp1345
Rp1346
(dp1347
g25
g84
sg188
Nsg189
(lp1348
g1
(g184
g3
Ntp1349
Rp1350
(dp1351
g25
g96
sg188
g1346
sg189
(lp1352
g1
(g184
g3
Ntp1353
Rp1354
(dp1355
g25
g96
sg188
g1350
sg189
(lp1356
g1
(g184
g3
Ntp1357
Rp1358
(dp1359
g25
g96
sg188
g1354
sg189
(lp1360
g1
(g184
g3
Ntp1361
Rp1362
(dp1363
g25
g167
sg188
g1358
sg189
(lp1364
g1
(g184
g3
Ntp1365
Rp1366
(dp1367
g25
g102
sg188
g1362
sg189
(lp1368
g1
(g184
g3
Ntp1369
Rp1370
(dp1371
g25
g26
sg188
g1366
sg189
Nsg214
g17
sg215
Nsbag1
(g184
g3
Ntp1372
Rp1373
(dp1374
g25
g76
sg188
g1366
sg189
Nsg214
g63
sg215
Nsbasg214
g55
sg215
Nsbag1
(g184
g3
Ntp1375
Rp1376
(dp1377
g25
g152
sg188
g1362
sg189
(lp1378
g1
(g184
g3
Ntp1379
Rp1380
(dp1381
g25
g161
sg188
g1376
sg189
Nsg214
g146
sg215
Nsbag1
(g184
g3
Ntp1382
Rp1383
(dp1384
g25
g161
sg188
g1376
sg189
Nsg214
g146
sg215
Nsbag1
(g184
g3
Ntp1385
Rp1386
(dp1387
g25
g44
sg188
g1376
sg189
Nsg214
g17
sg215
Nsbag1
(g184
g3
Ntp1388
Rp1389
(dp1390
g25
g44
sg188
g1376
sg189
Nsg214
g17
sg215
Nsbasg214
g56
sg215
Nsbag1
(g184
g3
Ntp1391
Rp1392
(dp1393
g25
g152
sg188
g1362
sg189
(lp1394
g1
(g184
g3
Ntp1395
Rp1396
(dp1397
g25
g161
sg188
g1392
sg189
Nsg214
g146
sg215
Nsbag1
(g184
g3
Ntp1398
Rp1399
(dp1400
g25
g161
sg188
g1392
sg189
Nsg214
g146
sg215
Nsbag1
(g184
g3
Ntp1401
Rp1402
(dp1403
g25
g44
sg188
g1392
sg189
Nsg214
g17
sg215
Nsbag1
(g184
g3
Ntp1404
Rp1405
(dp1406
g25
g44
sg188
g1392
sg189
Nsg214
g17
sg215
Nsbasg214
g56
sg215
Nsbasg214
g62
sg215
Nsbasg214
g140
sg215
Nsbasg214
g90
sg215
Nsbasg214
g83
sg215
Nsbasg214
g77
sg215
Nsbsg251
F-2411.683012484096
sg252
F-11.683012484095842
sg253
F1.0
sg254
F1.0
sg255
Nsg256
g257
sg260
Nsg261
F-2400.0
sg258
g259
sg262
I25
sbag1343
ag1
(g2
g3
Ntp1407
Rp1408
(dp1409
g7
g10
sg181
Nsg182
Nsg183
g1
(g184
g3
Ntp1410
Rp1411
(dp1412
g25
g84
sg188
Nsg189
(lp1413
g1
(g184
g3
Ntp1414
Rp1415
(dp1416
g25
g96
sg188
g1411
sg189
(lp1417
g1
(g184
g3
Ntp1418
Rp1419
(dp1420
g25
g96
sg188
g1415
sg189
(lp1421
g1
(g184
g3
Ntp1422
Rp1423
(dp1424
g25
g96
sg188
g1419
sg189
(lp1425
g1
(g184
g3
Ntp1426
Rp1427
(dp1428
g25
g167
sg188
g1423
sg189
(lp1429
g1
(g184
g3
Ntp1430
Rp1431
(dp1432
g25
g102
sg188
g1427
sg189
(lp1433
g1
(g184
g3
Ntp1434
Rp1435
(dp1436
g25
g26
sg188
g1431
sg189
Nsg214
g17
sg215
Nsbag1
(g184
g3
Ntp1437
Rp1438
(dp1439
g25
g76
sg188
g1431
sg189
Nsg214
g63
sg215
Nsbasg214
g55
sg215
Nsbag1
(g184
g3
Ntp1440
Rp1441
(dp1442
g25
g152
sg188
g1427
sg189
(lp1443
g1
(g184
g3
Ntp1444
Rp1445
(dp1446
g25
g161
sg188
g1441
sg189
Nsg214
g146
sg215
Nsbag1
(g184
g3
Ntp1447
Rp1448
(dp1449
g25
g161
sg188
g1441
sg189
Nsg214
g146
sg215
Nsbag1
(g184
g3
Ntp1450
Rp1451
(dp1452
g25
g44
sg188
g1441
sg189
Nsg214
g17
sg215
Nsbag1
(g184
g3
Ntp1453
Rp1454
(dp1455
g25
g44
sg188
g1441
sg189
Nsg214
g17
sg215
Nsbasg214
g56
sg215
Nsbag1
(g184
g3
Ntp1456
Rp1457
(dp1458
g25
g152
sg188
g1427
sg189
(lp1459
g1
(g184
g3
Ntp1460
Rp1461
(dp1462
g25
g161
sg188
g1457
sg189
Nsg214
g146
sg215
Nsbag1
(g184
g3
Ntp1463
Rp1464
(dp1465
g25
g161
sg188
g1457
sg189
Nsg214
g146
sg215
Nsbag1
(g184
g3
Ntp1466
Rp1467
(dp1468
g25
g44
sg188
g1457
sg189
Nsg214
g17
sg215
Nsbag1
(g184
g3
Ntp1469
Rp1470
(dp1471
g25
g44
sg188
g1457
sg189
Nsg214
g17
sg215
Nsbasg214
g56
sg215
Nsbasg214
g62
sg215
Nsbasg214
g140
sg215
Nsbasg214
g90
sg215
Nsbasg214
g83
sg215
Nsbasg214
g77
sg215
Nsbsg251
F-2411.683012484096
sg252
F-11.683012484095842
sg253
F1.0
sg254
F1.0
sg255
Nsg256
g257
sg260
Nsg261
F-2400.0
sg258
g259
sg262
I25
sbag1
(g2
g3
Ntp1472
Rp1473
(dp1474
g7
g10
sg181
Nsg182
Nsg183
g1
(g184
g3
Ntp1475
Rp1476
(dp1477
g25
g84
sg188
Nsg189
(lp1478
g1
(g184
g3
Ntp1479
Rp1480
(dp1481
g25
g96
sg188
g1476
sg189
(lp1482
g1
(g184
g3
Ntp1483
Rp1484
(dp1485
g25
g96
sg188
g1480
sg189
(lp1486
g1
(g184
g3
Ntp1487
Rp1488
(dp1489
g25
g96
sg188
g1484
sg189
(lp1490
g1
(g184
g3
Ntp1491
Rp1492
(dp1493
g25
g167
sg188
g1488
sg189
(lp1494
g1
(g184
g3
Ntp1495
Rp1496
(dp1497
g25
g102
sg188
g1492
sg189
(lp1498
g1
(g184
g3
Ntp1499
Rp1500
(dp1501
g25
g26
sg188
g1496
sg189
Nsg214
g17
sg215
Nsbag1
(g184
g3
Ntp1502
Rp1503
(dp1504
g25
g76
sg188
g1496
sg189
Nsg214
g63
sg215
Nsbasg214
g55
sg215
Nsbag1
(g184
g3
Ntp1505
Rp1506
(dp1507
g25
g152
sg188
g1492
sg189
(lp1508
g1
(g184
g3
Ntp1509
Rp1510
(dp1511
g25
g161
sg188
g1506
sg189
Nsg214
g146
sg215
Nsbag1
(g184
g3
Ntp1512
Rp1513
(dp1514
g25
g161
sg188
g1506
sg189
Nsg214
g146
sg215
Nsbag1
(g184
g3
Ntp1515
Rp1516
(dp1517
g25
g44
sg188
g1506
sg189
Nsg214
g17
sg215
Nsbag1
(g184
g3
Ntp1518
Rp1519
(dp1520
g25
g44
sg188
g1506
sg189
Nsg214
g17
sg215
Nsbasg214
g56
sg215
Nsbag1
(g184
g3
Ntp1521
Rp1522
(dp1523
g25
g152
sg188
g1492
sg189
(lp1524
g1
(g184
g3
Ntp1525
Rp1526
(dp1527
g25
g161
sg188
g1522
sg189
Nsg214
g146
sg215
Nsbag1
(g184
g3
Ntp1528
Rp1529
(dp1530
g25
g161
sg188
g1522
sg189
Nsg214
g146
sg215
Nsbag1
(g184
g3
Ntp1531
Rp1532
(dp1533
g25
g44
sg188
g1522
sg189
Nsg214
g17
sg215
Nsbag1
(g184
g3
Ntp1534
Rp1535
(dp1536
g25
g44
sg188
g1522
sg189
Nsg214
g17
sg215
Nsbasg214
g56
sg215
Nsbasg214
g62
sg215
Nsbasg214
g140
sg215
Nsbasg214
g90
sg215
Nsbasg214
g83
sg215
Nsbasg214
g77
sg215
Nsbsg251
F-2411.683012484096
sg252
F-11.683012484095842
sg253
F1.0
sg254
F1.0
sg255
Nsg256
g257
sg260
Nsg261
F-2400.0
sg258
g259
sg262
I25
sbag1
(g2
g3
Ntp1537
Rp1538
(dp1539
g7
g10
sg181
Nsg182
Nsg183
g1
(g184
g3
Ntp1540
Rp1541
(dp1542
g25
g84
sg188
Nsg189
(lp1543
g1
(g184
g3
Ntp1544
Rp1545
(dp1546
g25
g96
sg188
g1541
sg189
(lp1547
g1
(g184
g3
Ntp1548
Rp1549
(dp1550
g25
g96
sg188
g1545
sg189
(lp1551
g1
(g184
g3
Ntp1552
Rp1553
(dp1554
g25
g156
sg188
g1549
sg189
Nsg214
g56
sg215
Nsbasg214
g90
sg215
Nsbasg214
g83
sg215
Nsbasg214
g77
sg215
Nsbsg251
F-2404.4308167988434
sg252
F-4.430816798843313
sg253
F1.0
sg254
F1.0
sg255
Nsg256
g257
sg260
Nsg261
F-2400.0
sg258
g259
sg262
I25
sbag1538
ag1
(g2
g3
Ntp1555
Rp1556
(dp1557
g7
g10
sg181
Nsg182
Nsg183
g1
(g184
g3
Ntp1558
Rp1559
(dp1560
g25
g84
sg188
Nsg189
(lp1561
g1
(g184
g3
Ntp1562
Rp1563
(dp1564
g25
g96
sg188
g1559
sg189
(lp1565
g1
(g184
g3
Ntp1566
Rp1567
(dp1568
g25
g96
sg188
g1563
sg189
(lp1569
g1
(g184
g3
Ntp1570
Rp1571
(dp1572
g25
g152
sg188
g1567
sg189
(lp1573
g1
(g184
g3
Ntp1574
Rp1575
(dp1576
g25
g161
sg188
g1571
sg189
Nsg214
g146
sg215
Nsbag1
(g184
g3
Ntp1577
Rp1578
(dp1579
g25
g161
sg188
g1571
sg189
Nsg214
g146
sg215
Nsbag1
(g184
g3
Ntp1580
Rp1581
(dp1582
g25
g40
sg188
g1571
sg189
Nsg214
g17
sg215
Nsbag1
(g184
g3
Ntp1583
Rp1584
(dp1585
g25
g40
sg188
g1571
sg189
Nsg214
g17
sg215
Nsbasg214
g56
sg215
Nsbasg214
g90
sg215
Nsbasg214
g83
sg215
Nsbasg214
g77
sg215
Nsbsg251
F-2406.7334018918373
sg252
F-6.73340189183736
sg253
F1.0
sg254
F1.0
sg255
Nsg256
g257
sg260
Nsg261
F-2400.0
sg258
g259
sg262
I25
sbag1
(g2
g3
Ntp1586
Rp1587
(dp1588
g7
g10
sg181
Nsg182
Nsg183
g1
(g184
g3
Ntp1589
Rp1590
(dp1591
g25
g84
sg188
Nsg189
(lp1592
g1
(g184
g3
Ntp1593
Rp1594
(dp1595
g25
g96
sg188
g1590
sg189
(lp1596
g1
(g184
g3
Ntp1597
Rp1598
(dp1599
g25
g96
sg188
g1594
sg189
(lp1600
g1
(g184
g3
Ntp1601
Rp1602
(dp1603
g25
g96
sg188
g1598
sg189
(lp1604
g1
(g184
g3
Ntp1605
Rp1606
(dp1607
g25
g57
sg188
g1602
sg189
(lp1608
g1
(g184
g3
Ntp1609
Rp1610
(dp1611
g25
g126
sg188
g1606
sg189
Nsg214
g55
sg215
Nsbag1
(g184
g3
Ntp1612
Rp1613
(dp1614
g25
g167
sg188
g1606
sg189
(lp1615
g1
(g184
g3
Ntp1616
Rp1617
(dp1618
g25
g122
sg188
g1613
sg189
(lp1619
g1
(g184
g3
Ntp1620
Rp1621
(dp1622
g25
g107
sg188
g1617
sg189
(lp1623
g1
(g184
g3
Ntp1624
Rp1625
(dp1626
g25
g44
sg188
g1621
sg189
Nsg214
g17
sg215
Nsbag1
(g184
g3
Ntp1627
Rp1628
(dp1629
g25
g76
sg188
g1621
sg189
Nsg214
g63
sg215
Nsbasg214
g55
sg215
Nsbasg214
g55
sg215
Nsbag1
(g184
g3
Ntp1630
Rp1631
(dp1632
g25
g152
sg188
g1613
sg189
(lp1633
g1
(g184
g3
Ntp1634
Rp1635
(dp1636
g25
g161
sg188
g1631
sg189
Nsg214
g146
sg215
Nsbag1
(g184
g3
Ntp1637
Rp1638
(dp1639
g25
g161
sg188
g1631
sg189
Nsg214
g146
sg215
Nsbag1
(g184
g3
Ntp1640
Rp1641
(dp1642
g25
g44
sg188
g1631
sg189
Nsg214
g17
sg215
Nsbag1
(g184
g3
Ntp1643
Rp1644
(dp1645
g25
g36
sg188
g1631
sg189
Nsg214
g17
sg215
Nsbasg214
g56
sg215
Nsbag1
(g184
g3
Ntp1646
Rp1647
(dp1648
g25
g147
sg188
g1613
sg189
(lp1649
g1
(g184
g3
Ntp1650
Rp1651
(dp1652
g25
g161
sg188
g1647
sg189
Nsg214
g146
sg215
Nsbag1
(g184
g3
Ntp1653
Rp1654
(dp1655
g25
g161
sg188
g1647
sg189
Nsg214
g146
sg215
Nsbag1
(g184
g3
Ntp1656
Rp1657
(dp1658
g25
g44
sg188
g1647
sg189
Nsg214
g17
sg215
Nsbag1
(g184
g3
Ntp1659
Rp1660
(dp1661
g25
g44
sg188
g1647
sg189
Nsg214
g17
sg215
Nsbag1
(g184
g3
Ntp1662
Rp1663
(dp1664
g25
g72
sg188
g1647
sg189
Nsg214
g63
sg215
Nsbasg214
g56
sg215
Nsbasg214
g62
sg215
Nsbasg214
g49
sg215
Nsbasg214
g140
sg215
Nsbasg214
g90
sg215
Nsbasg214
g83
sg215
Nsbasg214
g77
sg215
Nsbsg251
F-2417.3665922514347
sg252
F-17.366592251434522
sg253
F1.0
sg254
F1.0
sg255
Nsg256
g257
sg260
Nsg261
F-2400.0
sg258
g259
sg262
I25
sbag1
(g2
g3
Ntp1665
Rp1666
(dp1667
g7
g10
sg181
Nsg182
Nsg183
g1
(g184
g3
Ntp1668
Rp1669
(dp1670
g25
g84
sg188
Nsg189
(lp1671
g1
(g184
g3
Ntp1672
Rp1673
(dp1674
g25
g96
sg188
g1669
sg189
(lp1675
g1
(g184
g3
Ntp1676
Rp1677
(dp1678
g25
g96
sg188
g1673
sg189
(lp1679
g1
(g184
g3
Ntp1680
Rp1681
(dp1682
g25
g96
sg188
g1677
sg189
(lp1683
g1
(g184
g3
Ntp1684
Rp1685
(dp1686
g25
g57
sg188
g1681
sg189
(lp1687
g1
(g184
g3
Ntp1688
Rp1689
(dp1690
g25
g126
sg188
g1685
sg189
Nsg214
g55
sg215
Nsbag1
(g184
g3
Ntp1691
Rp1692
(dp1693
g25
g167
sg188
g1685
sg189
(lp1694
g1
(g184
g3
Ntp1695
Rp1696
(dp1697
g25
g126
sg188
g1692
sg189
Nsg214
g55
sg215
Nsbag1
(g184
g3
Ntp1698
Rp1699
(dp1700
g25
g152
sg188
g1692
sg189
(lp1701
g1
(g184
g3
Ntp1702
Rp1703
(dp1704
g25
g161
sg188
g1699
sg189
Nsg214
g146
sg215
Nsbag1
(g184
g3
Ntp1705
Rp1706
(dp1707
g25
g161
sg188
g1699
sg189
Nsg214
g146
sg215
Nsbag1
(g184
g3
Ntp1708
Rp1709
(dp1710
g25
g44
sg188
g1699
sg189
Nsg214
g17
sg215
Nsbag1
(g184
g3
Ntp1711
Rp1712
(dp1713
g25
g36
sg188
g1699
sg189
Nsg214
g17
sg215
Nsbasg214
g56
sg215
Nsbag1
(g184
g3
Ntp1714
Rp1715
(dp1716
g25
g147
sg188
g1692
sg189
(lp1717
g1
(g184
g3
Ntp1718
Rp1719
(dp1720
g25
g161
sg188
g1715
sg189
Nsg214
g146
sg215
Nsbag1
(g184
g3
Ntp1721
Rp1722
(dp1723
g25
g161
sg188
g1715
sg189
Nsg214
g146
sg215
Nsbag1
(g184
g3
Ntp1724
Rp1725
(dp1726
g25
g44
sg188
g1715
sg189
Nsg214
g17
sg215
Nsbag1
(g184
g3
Ntp1727
Rp1728
(dp1729
g25
g44
sg188
g1715
sg189
Nsg214
g17
sg215
Nsbag1
(g184
g3
Ntp1730
Rp1731
(dp1732
g25
g72
sg188
g1715
sg189
Nsg214
g63
sg215
Nsbasg214
g56
sg215
Nsbasg214
g62
sg215
Nsbasg214
g49
sg215
Nsbasg214
g140
sg215
Nsbasg214
g90
sg215
Nsbasg214
g83
sg215
Nsbasg214
g77
sg215
Nsbsg251
F-2413.628922633151
sg252
F-13.628922633151156
sg253
F1.0
sg254
F1.0
sg255
Nsg256
g257
sg260
Nsg261
F-2400.0
sg258
g259
sg262
I25
sbag1666
ag1
(g2
g3
Ntp1733
Rp1734
(dp1735
g7
g10
sg181
Nsg182
Nsg183
g1
(g184
g3
Ntp1736
Rp1737
(dp1738
g25
g84
sg188
Nsg189
(lp1739
g1
(g184
g3
Ntp1740
Rp1741
(dp1742
g25
g96
sg188
g1737
sg189
(lp1743
g1
(g184
g3
Ntp1744
Rp1745
(dp1746
g25
g96
sg188
g1741
sg189
(lp1747
g1
(g184
g3
Ntp1748
Rp1749
(dp1750
g25
g96
sg188
g1745
sg189
(lp1751
g1
(g184
g3
Ntp1752
Rp1753
(dp1754
g25
g57
sg188
g1749
sg189
(lp1755
g1
(g184
g3
Ntp1756
Rp1757
(dp1758
g25
g102
sg188
g1753
sg189
(lp1759
g1
(g184
g3
Ntp1760
Rp1761
(dp1762
g25
g26
sg188
g1757
sg189
Nsg214
g17
sg215
Nsbag1
(g184
g3
Ntp1763
Rp1764
(dp1765
g25
g68
sg188
g1757
sg189
Nsg214
g63
sg215
Nsbasg214
g55
sg215
Nsbag1
(g184
g3
Ntp1766
Rp1767
(dp1768
g25
g167
sg188
g1753
sg189
(lp1769
g1
(g184
g3
Ntp1770
Rp1771
(dp1772
g25
g126
sg188
g1767
sg189
Nsg214
g55
sg215
Nsbag1
(g184
g3
Ntp1773
Rp1774
(dp1775
g25
g152
sg188
g1767
sg189
(lp1776
g1
(g184
g3
Ntp1777
Rp1778
(dp1779
g25
g161
sg188
g1774
sg189
Nsg214
g146
sg215
Nsbag1
(g184
g3
Ntp1780
Rp1781
(dp1782
g25
g161
sg188
g1774
sg189
Nsg214
g146
sg215
Nsbag1
(g184
g3
Ntp1783
Rp1784
(dp1785
g25
g44
sg188
g1774
sg189
Nsg214
g17
sg215
Nsbag1
(g184
g3
Ntp1786
Rp1787
(dp1788
g25
g36
sg188
g1774
sg189
Nsg214
g17
sg215
Nsbasg214
g56
sg215
Nsbag1
(g184
g3
Ntp1789
Rp1790
(dp1791
g25
g147
sg188
g1767
sg189
(lp1792
g1
(g184
g3
Ntp1793
Rp1794
(dp1795
g25
g161
sg188
g1790
sg189
Nsg214
g146
sg215
Nsbag1
(g184
g3
Ntp1796
Rp1797
(dp1798
g25
g161
sg188
g1790
sg189
Nsg214
g146
sg215
Nsbag1
(g184
g3
Ntp1799
Rp1800
(dp1801
g25
g44
sg188
g1790
sg189
Nsg214
g17
sg215
Nsbag1
(g184
g3
Ntp1802
Rp1803
(dp1804
g25
g44
sg188
g1790
sg189
Nsg214
g17
sg215
Nsbag1
(g184
g3
Ntp1805
Rp1806
(dp1807
g25
g72
sg188
g1790
sg189
Nsg214
g63
sg215
Nsbasg214
g56
sg215
Nsbasg214
g62
sg215
Nsbasg214
g49
sg215
Nsbasg214
g140
sg215
Nsbasg214
g90
sg215
Nsbasg214
g83
sg215
Nsbasg214
g77
sg215
Nsbsg251
F-2417.0301200148133
sg252
F-17.03012001481331
sg253
F1.0
sg254
F1.0
sg255
Nsg256
g257
sg260
Nsg261
F-2400.0
sg258
g259
sg262
I25
sbag1
(g2
g3
Ntp1808
Rp1809
(dp1810
g7
g10
sg181
Nsg182
Nsg183
g1
(g184
g3
Ntp1811
Rp1812
(dp1813
g25
g84
sg188
Nsg189
(lp1814
g1
(g184
g3
Ntp1815
Rp1816
(dp1817
g25
g96
sg188
g1812
sg189
(lp1818
g1
(g184
g3
Ntp1819
Rp1820
(dp1821
g25
g96
sg188
g1816
sg189
(lp1822
g1
(g184
g3
Ntp1823
Rp1824
(dp1825
g25
g96
sg188
g1820
sg189
(lp1826
g1
(g184
g3
Ntp1827
Rp1828
(dp1829
g25
g57
sg188
g1824
sg189
(lp1830
g1
(g184
g3
Ntp1831
Rp1832
(dp1833
g25
g117
sg188
g1828
sg189
(lp1834
g1
(g184
g3
Ntp1835
Rp1836
(dp1837
g25
g26
sg188
g1832
sg189
Nsg214
g17
sg215
Nsbasg214
g55
sg215
Nsbag1
(g184
g3
Ntp1838
Rp1839
(dp1840
g25
g167
sg188
g1828
sg189
(lp1841
g1
(g184
g3
Ntp1842
Rp1843
(dp1844
g25
g126
sg188
g1839
sg189
Nsg214
g55
sg215
Nsbag1
(g184
g3
Ntp1845
Rp1846
(dp1847
g25
g147
sg188
g1839
sg189
(lp1848
g1
(g184
g3
Ntp1849
Rp1850
(dp1851
g25
g161
sg188
g1846
sg189
Nsg214
g146
sg215
Nsbag1
(g184
g3
Ntp1852
Rp1853
(dp1854
g25
g161
sg188
g1846
sg189
Nsg214
g146
sg215
Nsbag1
(g184
g3
Ntp1855
Rp1856
(dp1857
g25
g40
sg188
g1846
sg189
Nsg214
g17
sg215
Nsbag1
(g184
g3
Ntp1858
Rp1859
(dp1860
g25
g36
sg188
g1846
sg189
Nsg214
g17
sg215
Nsbag1
(g184
g3
Ntp1861
Rp1862
(dp1863
g25
g76
sg188
g1846
sg189
Nsg214
g63
sg215
Nsbasg214
g56
sg215
Nsbag1
(g184
g3
Ntp1864
Rp1865
(dp1866
g25
g152
sg188
g1839
sg189
(lp1867
g1
(g184
g3
Ntp1868
Rp1869
(dp1870
g25
g161
sg188
g1865
sg189
Nsg214
g146
sg215
Nsbag1
(g184
g3
Ntp1871
Rp1872
(dp1873
g25
g161
sg188
g1865
sg189
Nsg214
g146
sg215
Nsbag1
(g184
g3
Ntp1874
Rp1875
(dp1876
g25
g44
sg188
g1865
sg189
Nsg214
g17
sg215
Nsbag1
(g184
g3
Ntp1877
Rp1878
(dp1879
g25
g40
sg188
g1865
sg189
Nsg214
g17
sg215
Nsbasg214
g56
sg215
Nsbasg214
g62
sg215
Nsbasg214
g49
sg215
Nsbasg214
g140
sg215
Nsbasg214
g90
sg215
Nsbasg214
g83
sg215
Nsbasg214
g77
sg215
Nsbsg251
F-2419.1503835510134
sg252
F-19.150383551013398
sg253
F1.0
sg254
F1.0
sg255
Nsg256
g257
sg260
Nsg261
F-2400.0
sg258
g259
sg262
I25
sbag1
(g2
g3
Ntp1880
Rp1881
(dp1882
g7
g10
sg181
Nsg182
Nsg183
g1
(g184
g3
Ntp1883
Rp1884
(dp1885
g25
g84
sg188
Nsg189
(lp1886
g1
(g184
g3
Ntp1887
Rp1888
(dp1889
g25
g96
sg188
g1884
sg189
(lp1890
g1
(g184
g3
Ntp1891
Rp1892
(dp1893
g25
g96
sg188
g1888
sg189
(lp1894
g1
(g184
g3
Ntp1895
Rp1896
(dp1897
g25
g96
sg188
g1892
sg189
(lp1898
g1
(g184
g3
Ntp1899
Rp1900
(dp1901
g25
g57
sg188
g1896
sg189
(lp1902
g1
(g184
g3
Ntp1903
Rp1904
(dp1905
g25
g117
sg188
g1900
sg189
(lp1906
g1
(g184
g3
Ntp1907
Rp1908
(dp1909
g25
g26
sg188
g1904
sg189
Nsg214
g17
sg215
Nsbasg214
g55
sg215
Nsbag1
(g184
g3
Ntp1910
Rp1911
(dp1912
g25
g167
sg188
g1900
sg189
(lp1913
g1
(g184
g3
Ntp1914
Rp1915
(dp1916
g25
g126
sg188
g1911
sg189
Nsg214
g55
sg215
Nsbag1
(g184
g3
Ntp1917
Rp1918
(dp1919
g25
g147
sg188
g1911
sg189
(lp1920
g1
(g184
g3
Ntp1921
Rp1922
(dp1923
g25
g161
sg188
g1918
sg189
Nsg214
g146
sg215
Nsbag1
(g184
g3
Ntp1924
Rp1925
(dp1926
g25
g161
sg188
g1918
sg189
Nsg214
g146
sg215
Nsbag1
(g184
g3
Ntp1927
Rp1928
(dp1929
g25
g36
sg188
g1918
sg189
Nsg214
g17
sg215
Nsbag1
(g184
g3
Ntp1930
Rp1931
(dp1932
g25
g36
sg188
g1918
sg189
Nsg214
g17
sg215
Nsbag1
(g184
g3
Ntp1933
Rp1934
(dp1935
g25
g76
sg188
g1918
sg189
Nsg214
g63
sg215
Nsbasg214
g56
sg215
Nsbag1
(g184
g3
Ntp1936
Rp1937
(dp1938
g25
g152
sg188
g1911
sg189
(lp1939
g1
(g184
g3
Ntp1940
Rp1941
(dp1942
g25
g161
sg188
g1937
sg189
Nsg214
g146
sg215
Nsbag1
(g184
g3
Ntp1943
Rp1944
(dp1945
g25
g161
sg188
g1937
sg189
Nsg214
g146
sg215
Nsbag1
(g184
g3
Ntp1946
Rp1947
(dp1948
g25
g44
sg188
g1937
sg189
Nsg214
g17
sg215
Nsbag1
(g184
g3
Ntp1949
Rp1950
(dp1951
g25
g40
sg188
g1937
sg189
Nsg214
g17
sg215
Nsbasg214
g56
sg215
Nsbasg214
g62
sg215
Nsbasg214
g49
sg215
Nsbasg214
g140
sg215
Nsbasg214
g90
sg215
Nsbasg214
g83
sg215
Nsbasg214
g77
sg215
Nsbsg251
F-2419.1503835510134
sg252
F-19.150383551013398
sg253
F1.0
sg254
F1.0
sg255
Nsg256
g257
sg260
Nsg261
F-2400.0
sg258
g259
sg262
I25
sbag1
(g2
g3
Ntp1952
Rp1953
(dp1954
g7
g10
sg181
Nsg182
Nsg183
g1
(g184
g3
Ntp1955
Rp1956
(dp1957
g25
g84
sg188
Nsg189
(lp1958
g1
(g184
g3
Ntp1959
Rp1960
(dp1961
g25
g96
sg188
g1956
sg189
(lp1962
g1
(g184
g3
Ntp1963
Rp1964
(dp1965
g25
g96
sg188
g1960
sg189
(lp1966
g1
(g184
g3
Ntp1967
Rp1968
(dp1969
g25
g96
sg188
g1964
sg189
(lp1970
g1
(g184
g3
Ntp1971
Rp1972
(dp1973
g25
g57
sg188
g1968
sg189
(lp1974
g1
(g184
g3
Ntp1975
Rp1976
(dp1977
g25
g117
sg188
g1972
sg189
(lp1978
g1
(g184
g3
Ntp1979
Rp1980
(dp1981
g25
g26
sg188
g1976
sg189
Nsg214
g17
sg215
Nsbasg214
g55
sg215
Nsbag1
(g184
g3
Ntp1982
Rp1983
(dp1984
g25
g167
sg188
g1972
sg189
(lp1985
g1
(g184
g3
Ntp1986
Rp1987
(dp1988
g25
g126
sg188
g1983
sg189
Nsg214
g55
sg215
Nsbag1
(g184
g3
Ntp1989
Rp1990
(dp1991
g25
g147
sg188
g1983
sg189
(lp1992
g1
(g184
g3
Ntp1993
Rp1994
(dp1995
g25
g161
sg188
g1990
sg189
Nsg214
g146
sg215
Nsbag1
(g184
g3
Ntp1996
Rp1997
(dp1998
g25
g161
sg188
g1990
sg189
Nsg214
g146
sg215
Nsbag1
(g184
g3
Ntp1999
Rp2000
(dp2001
g25
g36
sg188
g1990
sg189
Nsg214
g17
sg215
Nsbag1
(g184
g3
Ntp2002
Rp2003
(dp2004
g25
g36
sg188
g1990
sg189
Nsg214
g17
sg215
Nsbag1
(g184
g3
Ntp2005
Rp2006
(dp2007
g25
g76
sg188
g1990
sg189
Nsg214
g63
sg215
Nsbasg214
g56
sg215
Nsbag1
(g184
g3
Ntp2008
Rp2009
(dp2010
g25
g152
sg188
g1983
sg189
(lp2011
g1
(g184
g3
Ntp2012
Rp2013
(dp2014
g25
g161
sg188
g2009
sg189
Nsg214
g146
sg215
Nsbag1
(g184
g3
Ntp2015
Rp2016
(dp2017
g25
g161
sg188
g2009
sg189
Nsg214
g146
sg215
Nsbag1
(g184
g3
Ntp2018
Rp2019
(dp2020
g25
g44
sg188
g2009
sg189
Nsg214
g17
sg215
Nsbag1
(g184
g3
Ntp2021
Rp2022
(dp2023
g25
g40
sg188
g2009
sg189
Nsg214
g17
sg215
Nsbasg214
g56
sg215
Nsbasg214
g62
sg215
Nsbasg214
g49
sg215
Nsbasg214
g140
sg215
Nsbasg214
g90
sg215
Nsbasg214
g83
sg215
Nsbasg214
g77
sg215
Nsbsg251
F-2419.1503835510134
sg252
F-19.150383551013398
sg253
F1.0
sg254
F1.0
sg255
Nsg256
g257
sg260
Nsg261
F-2400.0
sg258
g259
sg262
I25
sbag1
(g2
g3
Ntp2024
Rp2025
(dp2026
g7
g10
sg181
Nsg182
Nsg183
g1
(g184
g3
Ntp2027
Rp2028
(dp2029
g25
g84
sg188
Nsg189
(lp2030
g1
(g184
g3
Ntp2031
Rp2032
(dp2033
g25
g96
sg188
g2028
sg189
(lp2034
g1
(g184
g3
Ntp2035
Rp2036
(dp2037
g25
g96
sg188
g2032
sg189
(lp2038
g1
(g184
g3
Ntp2039
Rp2040
(dp2041
g25
g96
sg188
g2036
sg189
(lp2042
g1
(g184
g3
Ntp2043
Rp2044
(dp2045
g25
g57
sg188
g2040
sg189
(lp2046
g1
(g184
g3
Ntp2047
Rp2048
(dp2049
g25
g117
sg188
g2044
sg189
(lp2050
g1
(g184
g3
Ntp2051
Rp2052
(dp2053
g25
g26
sg188
g2048
sg189
Nsg214
g17
sg215
Nsbasg214
g55
sg215
Nsbag1
(g184
g3
Ntp2054
Rp2055
(dp2056
g25
g167
sg188
g2044
sg189
(lp2057
g1
(g184
g3
Ntp2058
Rp2059
(dp2060
g25
g107
sg188
g2055
sg189
(lp2061
g1
(g184
g3
Ntp2062
Rp2063
(dp2064
g25
g36
sg188
g2059
sg189
Nsg214
g17
sg215
Nsbag1
(g184
g3
Ntp2065
Rp2066
(dp2067
g25
g72
sg188
g2059
sg189
Nsg214
g63
sg215
Nsbasg214
g55
sg215
Nsbag1
(g184
g3
Ntp2068
Rp2069
(dp2070
g25
g152
sg188
g2055
sg189
(lp2071
g1
(g184
g3
Ntp2072
Rp2073
(dp2074
g25
g161
sg188
g2069
sg189
Nsg214
g146
sg215
Nsbag1
(g184
g3
Ntp2075
Rp2076
(dp2077
g25
g161
sg188
g2069
sg189
Nsg214
g146
sg215
Nsbag1
(g184
g3
Ntp2078
Rp2079
(dp2080
g25
g44
sg188
g2069
sg189
Nsg214
g17
sg215
Nsbag1
(g184
g3
Ntp2081
Rp2082
(dp2083
g25
g44
sg188
g2069
sg189
Nsg214
g17
sg215
Nsbasg214
g56
sg215
Nsbag1
(g184
g3
Ntp2084
Rp2085
(dp2086
g25
g152
sg188
g2055
sg189
(lp2087
g1
(g184
g3
Ntp2088
Rp2089
(dp2090
g25
g161
sg188
g2085
sg189
Nsg214
g146
sg215
Nsbag1
(g184
g3
Ntp2091
Rp2092
(dp2093
g25
g161
sg188
g2085
sg189
Nsg214
g146
sg215
Nsbag1
(g184
g3
Ntp2094
Rp2095
(dp2096
g25
g44
sg188
g2085
sg189
Nsg214
g17
sg215
Nsbag1
(g184
g3
Ntp2097
Rp2098
(dp2099
g25
g40
sg188
g2085
sg189
Nsg214
g17
sg215
Nsbasg214
g56
sg215
Nsbasg214
g62
sg215
Nsbasg214
g49
sg215
Nsbasg214
g140
sg215
Nsbasg214
g90
sg215
Nsbasg214
g83
sg215
Nsbasg214
g77
sg215
Nsbsg251
F-2418.2340928191393
sg252
F-18.234092819139242
sg253
F1.0
sg254
F1.0
sg255
Nsg256
g257
sg260
Nsg261
F-2400.0
sg258
g259
sg262
I25
sbag2025
ag1
(g2
g3
Ntp2100
Rp2101
(dp2102
g7
g10
sg181
Nsg182
Nsg183
g1
(g184
g3
Ntp2103
Rp2104
(dp2105
g25
g84
sg188
Nsg189
(lp2106
g1
(g184
g3
Ntp2107
Rp2108
(dp2109
g25
g96
sg188
g2104
sg189
(lp2110
g1
(g184
g3
Ntp2111
Rp2112
(dp2113
g25
g96
sg188
g2108
sg189
(lp2114
g1
(g184
g3
Ntp2115
Rp2116
(dp2117
g25
g96
sg188
g2112
sg189
(lp2118
g1
(g184
g3
Ntp2119
Rp2120
(dp2121
g25
g57
sg188
g2116
sg189
(lp2122
g1
(g184
g3
Ntp2123
Rp2124
(dp2125
g25
g117
sg188
g2120
sg189
(lp2126
g1
(g184
g3
Ntp2127
Rp2128
(dp2129
g25
g26
sg188
g2124
sg189
Nsg214
g17
sg215
Nsbasg214
g55
sg215
Nsbag1
(g184
g3
Ntp2130
Rp2131
(dp2132
g25
g167
sg188
g2120
sg189
(lp2133
g1
(g184
g3
Ntp2134
Rp2135
(dp2136
g25
g117
sg188
g2131
sg189
(lp2137
g1
(g184
g3
Ntp2138
Rp2139
(dp2140
g25
g44
sg188
g2135
sg189
Nsg214
g17
sg215
Nsbasg214
g55
sg215
Nsbag1
(g184
g3
Ntp2141
Rp2142
(dp2143
g25
g152
sg188
g2131
sg189
(lp2144
g1
(g184
g3
Ntp2145
Rp2146
(dp2147
g25
g161
sg188
g2142
sg189
Nsg214
g146
sg215
Nsbag1
(g184
g3
Ntp2148
Rp2149
(dp2150
g25
g161
sg188
g2142
sg189
Nsg214
g146
sg215
Nsbag1
(g184
g3
Ntp2151
Rp2152
(dp2153
g25
g44
sg188
g2142
sg189
Nsg214
g17
sg215
Nsbag1
(g184
g3
Ntp2154
Rp2155
(dp2156
g25
g36
sg188
g2142
sg189
Nsg214
g17
sg215
Nsbasg214
g56
sg215
Nsbag1
(g184
g3
Ntp2157
Rp2158
(dp2159
g25
g152
sg188
g2131
sg189
(lp2160
g1
(g184
g3
Ntp2161
Rp2162
(dp2163
g25
g161
sg188
g2158
sg189
Nsg214
g146
sg215
Nsbag1
(g184
g3
Ntp2164
Rp2165
(dp2166
g25
g161
sg188
g2158
sg189
Nsg214
g146
sg215
Nsbag1
(g184
g3
Ntp2167
Rp2168
(dp2169
g25
g44
sg188
g2158
sg189
Nsg214
g17
sg215
Nsbag1
(g184
g3
Ntp2170
Rp2171
(dp2172
g25
g44
sg188
g2158
sg189
Nsg214
g17
sg215
Nsbasg214
g56
sg215
Nsbasg214
g62
sg215
Nsbasg214
g49
sg215
Nsbasg214
g140
sg215
Nsbasg214
g90
sg215
Nsbasg214
g83
sg215
Nsbasg214
g77
sg215
Nsbsg251
F-2415.526042618037
sg252
F-15.526042618037037
sg253
F1.0
sg254
F1.0
sg255
Nsg256
g257
sg260
Nsg261
F-2400.0
sg258
g259
sg262
I25
sbag1
(g2
g3
Ntp2173
Rp2174
(dp2175
g7
g10
sg181
Nsg182
Nsg183
g1
(g184
g3
Ntp2176
Rp2177
(dp2178
g25
g84
sg188
Nsg189
(lp2179
g1
(g184
g3
Ntp2180
Rp2181
(dp2182
g25
g96
sg188
g2177
sg189
(lp2183
g1
(g184
g3
Ntp2184
Rp2185
(dp2186
g25
g96
sg188
g2181
sg189
(lp2187
g1
(g184
g3
Ntp2188
Rp2189
(dp2190
g25
g96
sg188
g2185
sg189
(lp2191
g1
(g184
g3
Ntp2192
Rp2193
(dp2194
g25
g57
sg188
g2189
sg189
(lp2195
g1
(g184
g3
Ntp2196
Rp2197
(dp2198
g25
g117
sg188
g2193
sg189
(lp2199
g1
(g184
g3
Ntp2200
Rp2201
(dp2202
g25
g26
sg188
g2197
sg189
Nsg214
g17
sg215
Nsbasg214
g55
sg215
Nsbag1
(g184
g3
Ntp2203
Rp2204
(dp2205
g25
g167
sg188
g2193
sg189
(lp2206
g1
(g184
g3
Ntp2207
Rp2208
(dp2209
g25
g117
sg188
g2204
sg189
(lp2210
g1
(g184
g3
Ntp2211
Rp2212
(dp2213
g25
g44
sg188
g2208
sg189
Nsg214
g17
sg215
Nsbasg214
g55
sg215
Nsbag1
(g184
g3
Ntp2214
Rp2215
(dp2216
g25
g147
sg188
g2204
sg189
(lp2217
g1
(g184
g3
Ntp2218
Rp2219
(dp2220
g25
g161
sg188
g2215
sg189
Nsg214
g146
sg215
Nsbag1
(g184
g3
Ntp2221
Rp2222
(dp2223
g25
g161
sg188
g2215
sg189
Nsg214
g146
sg215
Nsbag1
(g184
g3
Ntp2224
Rp2225
(dp2226
g25
g44
sg188
g2215
sg189
Nsg214
g17
sg215
Nsbag1
(g184
g3
Ntp2227
Rp2228
(dp2229
g25
g44
sg188
g2215
sg189
Nsg214
g17
sg215
Nsbag1
(g184
g3
Ntp2230
Rp2231
(dp2232
g25
g72
sg188
g2215
sg189
Nsg214
g63
sg215
Nsbasg214
g56
sg215
Nsbag1
(g184
g3
Ntp2233
Rp2234
(dp2235
g25
g152
sg188
g2204
sg189
(lp2236
g1
(g184
g3
Ntp2237
Rp2238
(dp2239
g25
g161
sg188
g2234
sg189
Nsg214
g146
sg215
Nsbag1
(g184
g3
Ntp2240
Rp2241
(dp2242
g25
g161
sg188
g2234
sg189
Nsg214
g146
sg215
Nsbag1
(g184
g3
Ntp2243
Rp2244
(dp2245
g25
g44
sg188
g2234
sg189
Nsg214
g17
sg215
Nsbag1
(g184
g3
Ntp2246
Rp2247
(dp2248
g25
g48
sg188
g2234
sg189
Nsg214
g17
sg215
Nsbasg214
g56
sg215
Nsbasg214
g62
sg215
Nsbasg214
g49
sg215
Nsbasg214
g140
sg215
Nsbasg214
g90
sg215
Nsbasg214
g83
sg215
Nsbasg214
g77
sg215
Nsbsg251
F-2416.624654906705
sg252
F-16.624654906705146
sg253
F1.0
sg254
F1.0
sg255
Nsg256
g257
sg260
Nsg261
F-2400.0
sg258
g259
sg262
I25
sbag1
(g2
g3
Ntp2249
Rp2250
(dp2251
g7
g10
sg181
Nsg182
Nsg183
g1
(g184
g3
Ntp2252
Rp2253
(dp2254
g25
g84
sg188
Nsg189
(lp2255
g1
(g184
g3
Ntp2256
Rp2257
(dp2258
g25
g96
sg188
g2253
sg189
(lp2259
g1
(g184
g3
Ntp2260
Rp2261
(dp2262
g25
g96
sg188
g2257
sg189
(lp2263
g1
(g184
g3
Ntp2264
Rp2265
(dp2266
g25
g96
sg188
g2261
sg189
(lp2267
g1
(g184
g3
Ntp2268
Rp2269
(dp2270
g25
g57
sg188
g2265
sg189
(lp2271
g1
(g184
g3
Ntp2272
Rp2273
(dp2274
g25
g117
sg188
g2269
sg189
(lp2275
g1
(g184
g3
Ntp2276
Rp2277
(dp2278
g25
g26
sg188
g2273
sg189
Nsg214
g17
sg215
Nsbasg214
g55
sg215
Nsbag1
(g184
g3
Ntp2279
Rp2280
(dp2281
g25
g167
sg188
g2269
sg189
(lp2282
g1
(g184
g3
Ntp2283
Rp2284
(dp2285
g25
g112
sg188
g2280
sg189
(lp2286
g1
(g184
g3
Ntp2287
Rp2288
(dp2289
g25
g48
sg188
g2284
sg189
Nsg214
g17
sg215
Nsbag1
(g184
g3
Ntp2290
Rp2291
(dp2292
g25
g44
sg188
g2284
sg189
Nsg214
g17
sg215
Nsbasg214
g55
sg215
Nsbag1
(g184
g3
Ntp2293
Rp2294
(dp2295
g25
g147
sg188
g2280
sg189
(lp2296
g1
(g184
g3
Ntp2297
Rp2298
(dp2299
g25
g161
sg188
g2294
sg189
Nsg214
g146
sg215
Nsbag1
(g184
g3
Ntp2300
Rp2301
(dp2302
g25
g161
sg188
g2294
sg189
Nsg214
g146
sg215
Nsbag1
(g184
g3
Ntp2303
Rp2304
(dp2305
g25
g44
sg188
g2294
sg189
Nsg214
g17
sg215
Nsbag1
(g184
g3
Ntp2306
Rp2307
(dp2308
g25
g44
sg188
g2294
sg189
Nsg214
g17
sg215
Nsbag1
(g184
g3
Ntp2309
Rp2310
(dp2311
g25
g72
sg188
g2294
sg189
Nsg214
g63
sg215
Nsbasg214
g56
sg215
Nsbag1
(g184
g3
Ntp2312
Rp2313
(dp2314
g25
g152
sg188
g2280
sg189
(lp2315
g1
(g184
g3
Ntp2316
Rp2317
(dp2318
g25
g161
sg188
g2313
sg189
Nsg214
g146
sg215
Nsbag1
(g184
g3
Ntp2319
Rp2320
(dp2321
g25
g161
sg188
g2313
sg189
Nsg214
g146
sg215
Nsbag1
(g184
g3
Ntp2322
Rp2323
(dp2324
g25
g44
sg188
g2313
sg189
Nsg214
g17
sg215
Nsbag1
(g184
g3
Ntp2325
Rp2326
(dp2327
g25
g36
sg188
g2313
sg189
Nsg214
g17
sg215
Nsbasg214
g56
sg215
Nsbasg214
g62
sg215
Nsbasg214
g49
sg215
Nsbasg214
g140
sg215
Nsbasg214
g90
sg215
Nsbasg214
g83
sg215
Nsbasg214
g77
sg215
Nsbsg251
F-2418.9272399996994
sg252
F-18.92723999969919
sg253
F1.0
sg254
F1.0
sg255
Nsg256
g257
sg260
Nsg261
F-2400.0
sg258
g259
sg262
I25
sbag1
(g2
g3
Ntp2328
Rp2329
(dp2330
g7
g10
sg181
Nsg182
Nsg183
g1
(g184
g3
Ntp2331
Rp2332
(dp2333
g25
g84
sg188
Nsg189
(lp2334
g1
(g184
g3
Ntp2335
Rp2336
(dp2337
g25
g96
sg188
g2332
sg189
(lp2338
g1
(g184
g3
Ntp2339
Rp2340
(dp2341
g25
g96
sg188
g2336
sg189
(lp2342
g1
(g184
g3
Ntp2343
Rp2344
(dp2345
g25
g96
sg188
g2340
sg189
(lp2346
g1
(g184
g3
Ntp2347
Rp2348
(dp2349
g25
g57
sg188
g2344
sg189
(lp2350
g1
(g184
g3
Ntp2351
Rp2352
(dp2353
g25
g102
sg188
g2348
sg189
(lp2354
g1
(g184
g3
Ntp2355
Rp2356
(dp2357
g25
g44
sg188
g2352
sg189
Nsg214
g17
sg215
Nsbag1
(g184
g3
Ntp2358
Rp2359
(dp2360
g25
g68
sg188
g2352
sg189
Nsg214
g63
sg215
Nsbasg214
g55
sg215
Nsbag1
(g184
g3
Ntp2361
Rp2362
(dp2363
g25
g152
sg188
g2348
sg189
(lp2364
g1
(g184
g3
Ntp2365
Rp2366
(dp2367
g25
g161
sg188
g2362
sg189
Nsg214
g146
sg215
Nsbag1
(g184
g3
Ntp2368
Rp2369
(dp2370
g25
g161
sg188
g2362
sg189
Nsg214
g146
sg215
Nsbag1
(g184
g3
Ntp2371
Rp2372
(dp2373
g25
g44
sg188
g2362
sg189
Nsg214
g17
sg215
Nsbag1
(g184
g3
Ntp2374
Rp2375
(dp2376
g25
g44
sg188
g2362
sg189
Nsg214
g17
sg215
Nsbasg214
g56
sg215
Nsbasg214
g49
sg215
Nsbasg214
g140
sg215
Nsbasg214
g90
sg215
Nsbasg214
g83
sg215
Nsbasg214
g77
sg215
Nsbsg251
F-2408.638490046372
sg252
F-8.638490046372418
sg253
F1.0
sg254
F1.0
sg255
Nsg256
g257
sg260
Nsg261
F-2400.0
sg258
g259
sg262
I25
sbag2329
ag1
(g2
g3
Ntp2377
Rp2378
(dp2379
g7
g10
sg181
Nsg182
Nsg183
g1
(g184
g3
Ntp2380
Rp2381
(dp2382
g25
g84
sg188
Nsg189
(lp2383
g1
(g184
g3
Ntp2384
Rp2385
(dp2386
g25
g96
sg188
g2381
sg189
(lp2387
g1
(g184
g3
Ntp2388
Rp2389
(dp2390
g25
g96
sg188
g2385
sg189
(lp2391
g1
(g184
g3
Ntp2392
Rp2393
(dp2394
g25
g96
sg188
g2389
sg189
(lp2395
g1
(g184
g3
Ntp2396
Rp2397
(dp2398
g25
g57
sg188
g2393
sg189
(lp2399
g1
(g184
g3
Ntp2400
Rp2401
(dp2402
g25
g102
sg188
g2397
sg189
(lp2403
g1
(g184
g3
Ntp2404
Rp2405
(dp2406
g25
g44
sg188
g2401
sg189
Nsg214
g17
sg215
Nsbag1
(g184
g3
Ntp2407
Rp2408
(dp2409
g25
g76
sg188
g2401
sg189
Nsg214
g63
sg215
Nsbasg214
g55
sg215
Nsbag1
(g184
g3
Ntp2410
Rp2411
(dp2412
g25
g167
sg188
g2397
sg189
(lp2413
g1
(g184
g3
Ntp2414
Rp2415
(dp2416
g25
g126
sg188
g2411
sg189
Nsg214
g55
sg215
Nsbag1
(g184
g3
Ntp2417
Rp2418
(dp2419
g25
g152
sg188
g2411
sg189
(lp2420
g1
(g184
g3
Ntp2421
Rp2422
(dp2423
g25
g161
sg188
g2418
sg189
Nsg214
g146
sg215
Nsbag1
(g184
g3
Ntp2424
Rp2425
(dp2426
g25
g161
sg188
g2418
sg189
Nsg214
g146
sg215
Nsbag1
(g184
g3
Ntp2427
Rp2428
(dp2429
g25
g44
sg188
g2418
sg189
Nsg214
g17
sg215
Nsbag1
(g184
g3
Ntp2430
Rp2431
(dp2432
g25
g48
sg188
g2418
sg189
Nsg214
g17
sg215
Nsbasg214
g56
sg215
Nsbag1
(g184
g3
Ntp2433
Rp2434
(dp2435
g25
g152
sg188
g2411
sg189
(lp2436
g1
(g184
g3
Ntp2437
Rp2438
(dp2439
g25
g161
sg188
g2434
sg189
Nsg214
g146
sg215
Nsbag1
(g184
g3
Ntp2440
Rp2441
(dp2442
g25
g161
sg188
g2434
sg189
Nsg214
g146
sg215
Nsbag1
(g184
g3
Ntp2443
Rp2444
(dp2445
g25
g36
sg188
g2434
sg189
Nsg214
g17
sg215
Nsbag1
(g184
g3
Ntp2446
Rp2447
(dp2448
g25
g44
sg188
g2434
sg189
Nsg214
g17
sg215
Nsbasg214
g56
sg215
Nsbasg214
g62
sg215
Nsbasg214
g49
sg215
Nsbasg214
g140
sg215
Nsbasg214
g90
sg215
Nsbasg214
g83
sg215
Nsbasg214
g77
sg215
Nsbsg251
F-2415.9315077261454
sg252
F-15.9315077261452
sg253
F1.0
sg254
F1.0
sg255
Nsg256
g257
sg260
Nsg261
F-2400.0
sg258
g259
sg262
I25
sbag1
(g2
g3
Ntp2449
Rp2450
(dp2451
g7
g10
sg181
Nsg182
Nsg183
g1
(g184
g3
Ntp2452
Rp2453
(dp2454
g25
g84
sg188
Nsg189
(lp2455
g1
(g184
g3
Ntp2456
Rp2457
(dp2458
g25
g96
sg188
g2453
sg189
(lp2459
g1
(g184
g3
Ntp2460
Rp2461
(dp2462
g25
g96
sg188
g2457
sg189
(lp2463
g1
(g184
g3
Ntp2464
Rp2465
(dp2466
g25
g96
sg188
g2461
sg189
(lp2467
g1
(g184
g3
Ntp2468
Rp2469
(dp2470
g25
g57
sg188
g2465
sg189
(lp2471
g1
(g184
g3
Ntp2472
Rp2473
(dp2474
g25
g102
sg188
g2469
sg189
(lp2475
g1
(g184
g3
Ntp2476
Rp2477
(dp2478
g25
g44
sg188
g2473
sg189
Nsg214
g17
sg215
Nsbag1
(g184
g3
Ntp2479
Rp2480
(dp2481
g25
g76
sg188
g2473
sg189
Nsg214
g63
sg215
Nsbasg214
g55
sg215
Nsbag1
(g184
g3
Ntp2482
Rp2483
(dp2484
g25
g167
sg188
g2469
sg189
(lp2485
g1
(g184
g3
Ntp2486
Rp2487
(dp2488
g25
g126
sg188
g2483
sg189
Nsg214
g55
sg215
Nsbag1
(g184
g3
Ntp2489
Rp2490
(dp2491
g25
g152
sg188
g2483
sg189
(lp2492
g1
(g184
g3
Ntp2493
Rp2494
(dp2495
g25
g161
sg188
g2490
sg189
Nsg214
g146
sg215
Nsbag1
(g184
g3
Ntp2496
Rp2497
(dp2498
g25
g161
sg188
g2490
sg189
Nsg214
g146
sg215
Nsbag1
(g184
g3
Ntp2499
Rp2500
(dp2501
g25
g44
sg188
g2490
sg189
Nsg214
g17
sg215
Nsbag1
(g184
g3
Ntp2502
Rp2503
(dp2504
g25
g48
sg188
g2490
sg189
Nsg214
g17
sg215
Nsbasg214
g56
sg215
Nsbag1
(g184
g3
Ntp2505
Rp2506
(dp2507
g25
g152
sg188
g2483
sg189
(lp2508
g1
(g184
g3
Ntp2509
Rp2510
(dp2511
g25
g161
sg188
g2506
sg189
Nsg214
g146
sg215
Nsbag1
(g184
g3
Ntp2512
Rp2513
(dp2514
g25
g161
sg188
g2506
sg189
Nsg214
g146
sg215
Nsbag1
(g184
g3
Ntp2515
Rp2516
(dp2517
g25
g36
sg188
g2506
sg189
Nsg214
g17
sg215
Nsbag1
(g184
g3
Ntp2518
Rp2519
(dp2520
g25
g44
sg188
g2506
sg189
Nsg214
g17
sg215
Nsbasg214
g56
sg215
Nsbasg214
g62
sg215
Nsbasg214
g49
sg215
Nsbasg214
g140
sg215
Nsbasg214
g90
sg215
Nsbasg214
g83
sg215
Nsbasg214
g77
sg215
Nsbsg251
F-2415.9315077261454
sg252
F-15.9315077261452
sg253
F1.0
sg254
F1.0
sg255
Nsg256
g257
sg260
Nsg261
F-2400.0
sg258
g259
sg262
I25
sbag1
(g2
g3
Ntp2521
Rp2522
(dp2523
g7
g10
sg181
Nsg182
Nsg183
g1
(g184
g3
Ntp2524
Rp2525
(dp2526
g25
g84
sg188
Nsg189
(lp2527
g1
(g184
g3
Ntp2528
Rp2529
(dp2530
g25
g96
sg188
g2525
sg189
(lp2531
g1
(g184
g3
Ntp2532
Rp2533
(dp2534
g25
g96
sg188
g2529
sg189
(lp2535
g1
(g184
g3
Ntp2536
Rp2537
(dp2538
g25
g96
sg188
g2533
sg189
(lp2539
g1
(g184
g3
Ntp2540
Rp2541
(dp2542
g25
g57
sg188
g2537
sg189
(lp2543
g1
(g184
g3
Ntp2544
Rp2545
(dp2546
g25
g102
sg188
g2541
sg189
(lp2547
g1
(g184
g3
Ntp2548
Rp2549
(dp2550
g25
g44
sg188
g2545
sg189
Nsg214
g17
sg215
Nsbag1
(g184
g3
Ntp2551
Rp2552
(dp2553
g25
g76
sg188
g2545
sg189
Nsg214
g63
sg215
Nsbasg214
g55
sg215
Nsbag1
(g184
g3
Ntp2554
Rp2555
(dp2556
g25
g167
sg188
g2541
sg189
(lp2557
g1
(g184
g3
Ntp2558
Rp2559
(dp2560
g25
g126
sg188
g2555
sg189
Nsg214
g55
sg215
Nsbag1
(g184
g3
Ntp2561
Rp2562
(dp2563
g25
g152
sg188
g2555
sg189
(lp2564
g1
(g184
g3
Ntp2565
Rp2566
(dp2567
g25
g161
sg188
g2562
sg189
Nsg214
g146
sg215
Nsbag1
(g184
g3
Ntp2568
Rp2569
(dp2570
g25
g161
sg188
g2562
sg189
Nsg214
g146
sg215
Nsbag1
(g184
g3
Ntp2571
Rp2572
(dp2573
g25
g44
sg188
g2562
sg189
Nsg214
g17
sg215
Nsbag1
(g184
g3
Ntp2574
Rp2575
(dp2576
g25
g48
sg188
g2562
sg189
Nsg214
g17
sg215
Nsbasg214
g56
sg215
Nsbag1
(g184
g3
Ntp2577
Rp2578
(dp2579
g25
g152
sg188
g2555
sg189
(lp2580
g1
(g184
g3
Ntp2581
Rp2582
(dp2583
g25
g161
sg188
g2578
sg189
Nsg214
g146
sg215
Nsbag1
(g184
g3
Ntp2584
Rp2585
(dp2586
g25
g161
sg188
g2578
sg189
Nsg214
g146
sg215
Nsbag1
(g184
g3
Ntp2587
Rp2588
(dp2589
g25
g36
sg188
g2578
sg189
Nsg214
g17
sg215
Nsbag1
(g184
g3
Ntp2590
Rp2591
(dp2592
g25
g44
sg188
g2578
sg189
Nsg214
g17
sg215
Nsbasg214
g56
sg215
Nsbasg214
g62
sg215
Nsbasg214
g49
sg215
Nsbasg214
g140
sg215
Nsbasg214
g90
sg215
Nsbasg214
g83
sg215
Nsbasg214
g77
sg215
Nsbsg251
F-2415.9315077261454
sg252
F-15.9315077261452
sg253
F1.0
sg254
F1.0
sg255
Nsg256
g257
sg260
Nsg261
F-2400.0
sg258
g259
sg262
I25
sbag1
(g2
g3
Ntp2593
Rp2594
(dp2595
g7
g10
sg181
Nsg182
Nsg183
g1
(g184
g3
Ntp2596
Rp2597
(dp2598
g25
g84
sg188
Nsg189
(lp2599
g1
(g184
g3
Ntp2600
Rp2601
(dp2602
g25
g96
sg188
g2597
sg189
(lp2603
g1
(g184
g3
Ntp2604
Rp2605
(dp2606
g25
g96
sg188
g2601
sg189
(lp2607
g1
(g184
g3
Ntp2608
Rp2609
(dp2610
g25
g96
sg188
g2605
sg189
(lp2611
g1
(g184
g3
Ntp2612
Rp2613
(dp2614
g25
g57
sg188
g2609
sg189
(lp2615
g1
(g184
g3
Ntp2616
Rp2617
(dp2618
g25
g107
sg188
g2613
sg189
(lp2619
g1
(g184
g3
Ntp2620
Rp2621
(dp2622
g25
g36
sg188
g2617
sg189
Nsg214
g17
sg215
Nsbag1
(g184
g3
Ntp2623
Rp2624
(dp2625
g25
g72
sg188
g2617
sg189
Nsg214
g63
sg215
Nsbasg214
g55
sg215
Nsbag1
(g184
g3
Ntp2626
Rp2627
(dp2628
g25
g167
sg188
g2613
sg189
(lp2629
g1
(g184
g3
Ntp2630
Rp2631
(dp2632
g25
g126
sg188
g2627
sg189
Nsg214
g55
sg215
Nsbag1
(g184
g3
Ntp2633
Rp2634
(dp2635
g25
g152
sg188
g2627
sg189
(lp2636
g1
(g184
g3
Ntp2637
Rp2638
(dp2639
g25
g161
sg188
g2634
sg189
Nsg214
g146
sg215
Nsbag1
(g184
g3
Ntp2640
Rp2641
(dp2642
g25
g161
sg188
g2634
sg189
Nsg214
g146
sg215
Nsbag1
(g184
g3
Ntp2643
Rp2644
(dp2645
g25
g44
sg188
g2634
sg189
Nsg214
g17
sg215
Nsbag1
(g184
g3
Ntp2646
Rp2647
(dp2648
g25
g48
sg188
g2634
sg189
Nsg214
g17
sg215
Nsbasg214
g56
sg215
Nsbag1
(g184
g3
Ntp2649
Rp2650
(dp2651
g25
g152
sg188
g2627
sg189
(lp2652
g1
(g184
g3
Ntp2653
Rp2654
(dp2655
g25
g161
sg188
g2650
sg189
Nsg214
g146
sg215
Nsbag1
(g184
g3
Ntp2656
Rp2657
(dp2658
g25
g161
sg188
g2650
sg189
Nsg214
g146
sg215
Nsbag1
(g184
g3
Ntp2659
Rp2660
(dp2661
g25
g36
sg188
g2650
sg189
Nsg214
g17
sg215
Nsbag1
(g184
g3
Ntp2662
Rp2663
(dp2664
g25
g44
sg188
g2650
sg189
Nsg214
g17
sg215
Nsbasg214
g56
sg215
Nsbasg214
g62
sg215
Nsbasg214
g49
sg215
Nsbasg214
g140
sg215
Nsbasg214
g90
sg215
Nsbasg214
g83
sg215
Nsbasg214
g77
sg215
Nsbsg251
F-2417.540945638579
sg252
F-17.5409456385793
sg253
F1.0
sg254
F1.0
sg255
Nsg256
g257
sg260
Nsg261
F-2400.0
sg258
g259
sg262
I25
sbag1
(g2
g3
Ntp2665
Rp2666
(dp2667
g7
g10
sg181
Nsg182
Nsg183
g1
(g184
g3
Ntp2668
Rp2669
(dp2670
g25
g84
sg188
Nsg189
(lp2671
g1
(g184
g3
Ntp2672
Rp2673
(dp2674
g25
g96
sg188
g2669
sg189
(lp2675
g1
(g184
g3
Ntp2676
Rp2677
(dp2678
g25
g96
sg188
g2673
sg189
(lp2679
g1
(g184
g3
Ntp2680
Rp2681
(dp2682
g25
g96
sg188
g2677
sg189
(lp2683
g1
(g184
g3
Ntp2684
Rp2685
(dp2686
g25
g57
sg188
g2681
sg189
(lp2687
g1
(g184
g3
Ntp2688
Rp2689
(dp2690
g25
g107
sg188
g2685
sg189
(lp2691
g1
(g184
g3
Ntp2692
Rp2693
(dp2694
g25
g36
sg188
g2689
sg189
Nsg214
g17
sg215
Nsbag1
(g184
g3
Ntp2695
Rp2696
(dp2697
g25
g72
sg188
g2689
sg189
Nsg214
g63
sg215
Nsbasg214
g55
sg215
Nsbag1
(g184
g3
Ntp2698
Rp2699
(dp2700
g25
g167
sg188
g2685
sg189
(lp2701
g1
(g184
g3
Ntp2702
Rp2703
(dp2704
g25
g126
sg188
g2699
sg189
Nsg214
g55
sg215
Nsbag1
(g184
g3
Ntp2705
Rp2706
(dp2707
g25
g152
sg188
g2699
sg189
(lp2708
g1
(g184
g3
Ntp2709
Rp2710
(dp2711
g25
g161
sg188
g2706
sg189
Nsg214
g146
sg215
Nsbag1
(g184
g3
Ntp2712
Rp2713
(dp2714
g25
g161
sg188
g2706
sg189
Nsg214
g146
sg215
Nsbag1
(g184
g3
Ntp2715
Rp2716
(dp2717
g25
g44
sg188
g2706
sg189
Nsg214
g17
sg215
Nsbag1
(g184
g3
Ntp2718
Rp2719
(dp2720
g25
g48
sg188
g2706
sg189
Nsg214
g17
sg215
Nsbasg214
g56
sg215
Nsbag1
(g184
g3
Ntp2721
Rp2722
(dp2723
g25
g152
sg188
g2699
sg189
(lp2724
g1
(g184
g3
Ntp2725
Rp2726
(dp2727
g25
g161
sg188
g2722
sg189
Nsg214
g146
sg215
Nsbag1
(g184
g3
Ntp2728
Rp2729
(dp2730
g25
g161
sg188
g2722
sg189
Nsg214
g146
sg215
Nsbag1
(g184
g3
Ntp2731
Rp2732
(dp2733
g25
g36
sg188
g2722
sg189
Nsg214
g17
sg215
Nsbag1
(g184
g3
Ntp2734
Rp2735
(dp2736
g25
g44
sg188
g2722
sg189
Nsg214
g17
sg215
Nsbasg214
g56
sg215
Nsbasg214
g62
sg215
Nsbasg214
g49
sg215
Nsbasg214
g140
sg215
Nsbasg214
g90
sg215
Nsbasg214
g83
sg215
Nsbasg214
g77
sg215
Nsbsg251
F-2417.540945638579
sg252
F-17.5409456385793
sg253
F1.0
sg254
F1.0
sg255
Nsg256
g257
sg260
Nsg261
F-2400.0
sg258
g259
sg262
I25
sbag1
(g2
g3
Ntp2737
Rp2738
(dp2739
g7
g10
sg181
Nsg182
Nsg183
g1
(g184
g3
Ntp2740
Rp2741
(dp2742
g25
g84
sg188
Nsg189
(lp2743
g1
(g184
g3
Ntp2744
Rp2745
(dp2746
g25
g96
sg188
g2741
sg189
(lp2747
g1
(g184
g3
Ntp2748
Rp2749
(dp2750
g25
g96
sg188
g2745
sg189
(lp2751
g1
(g184
g3
Ntp2752
Rp2753
(dp2754
g25
g96
sg188
g2749
sg189
(lp2755
g1
(g184
g3
Ntp2756
Rp2757
(dp2758
g25
g57
sg188
g2753
sg189
(lp2759
g1
(g184
g3
Ntp2760
Rp2761
(dp2762
g25
g107
sg188
g2757
sg189
(lp2763
g1
(g184
g3
Ntp2764
Rp2765
(dp2766
g25
g40
sg188
g2761
sg189
Nsg214
g17
sg215
Nsbag1
(g184
g3
Ntp2767
Rp2768
(dp2769
g25
g72
sg188
g2761
sg189
Nsg214
g63
sg215
Nsbasg214
g55
sg215
Nsbag1
(g184
g3
Ntp2770
Rp2771
(dp2772
g25
g167
sg188
g2757
sg189
(lp2773
g1
(g184
g3
Ntp2774
Rp2775
(dp2776
g25
g126
sg188
g2771
sg189
Nsg214
g55
sg215
Nsbag1
(g184
g3
Ntp2777
Rp2778
(dp2779
g25
g152
sg188
g2771
sg189
(lp2780
g1
(g184
g3
Ntp2781
Rp2782
(dp2783
g25
g161
sg188
g2778
sg189
Nsg214
g146
sg215
Nsbag1
(g184
g3
Ntp2784
Rp2785
(dp2786
g25
g161
sg188
g2778
sg189
Nsg214
g146
sg215
Nsbag1
(g184
g3
Ntp2787
Rp2788
(dp2789
g25
g44
sg188
g2778
sg189
Nsg214
g17
sg215
Nsbag1
(g184
g3
Ntp2790
Rp2791
(dp2792
g25
g48
sg188
g2778
sg189
Nsg214
g17
sg215
Nsbasg214
g56
sg215
Nsbag1
(g184
g3
Ntp2793
Rp2794
(dp2795
g25
g152
sg188
g2771
sg189
(lp2796
g1
(g184
g3
Ntp2797
Rp2798
(dp2799
g25
g161
sg188
g2794
sg189
Nsg214
g146
sg215
Nsbag1
(g184
g3
Ntp2800
Rp2801
(dp2802
g25
g161
sg188
g2794
sg189
Nsg214
g146
sg215
Nsbag1
(g184
g3
Ntp2803
Rp2804
(dp2805
g25
g36
sg188
g2794
sg189
Nsg214
g17
sg215
Nsbag1
(g184
g3
Ntp2806
Rp2807
(dp2808
g25
g44
sg188
g2794
sg189
Nsg214
g17
sg215
Nsbasg214
g56
sg215
Nsbasg214
g62
sg215
Nsbasg214
g49
sg215
Nsbasg214
g140
sg215
Nsbasg214
g90
sg215
Nsbasg214
g83
sg215
Nsbasg214
g77
sg215
Nsbsg251
F-2417.540945638579
sg252
F-17.5409456385793
sg253
F1.0
sg254
F1.0
sg255
Nsg256
g257
sg260
Nsg261
F-2400.0
sg258
g259
sg262
I25
sbag1
(g2
g3
Ntp2809
Rp2810
(dp2811
g7
g10
sg181
Nsg182
Nsg183
g1
(g184
g3
Ntp2812
Rp2813
(dp2814
g25
g84
sg188
Nsg189
(lp2815
g1
(g184
g3
Ntp2816
Rp2817
(dp2818
g25
g96
sg188
g2813
sg189
(lp2819
g1
(g184
g3
Ntp2820
Rp2821
(dp2822
g25
g96
sg188
g2817
sg189
(lp2823
g1
(g184
g3
Ntp2824
Rp2825
(dp2826
g25
g96
sg188
g2821
sg189
(lp2827
g1
(g184
g3
Ntp2828
Rp2829
(dp2830
g25
g57
sg188
g2825
sg189
(lp2831
g1
(g184
g3
Ntp2832
Rp2833
(dp2834
g25
g107
sg188
g2829
sg189
(lp2835
g1
(g184
g3
Ntp2836
Rp2837
(dp2838
g25
g40
sg188
g2833
sg189
Nsg214
g17
sg215
Nsbag1
(g184
g3
Ntp2839
Rp2840
(dp2841
g25
g72
sg188
g2833
sg189
Nsg214
g63
sg215
Nsbasg214
g55
sg215
Nsbag1
(g184
g3
Ntp2842
Rp2843
(dp2844
g25
g167
sg188
g2829
sg189
(lp2845
g1
(g184
g3
Ntp2846
Rp2847
(dp2848
g25
g107
sg188
g2843
sg189
(lp2849
g1
(g184
g3
Ntp2850
Rp2851
(dp2852
g25
g48
sg188
g2847
sg189
Nsg214
g17
sg215
Nsbag1
(g184
g3
Ntp2853
Rp2854
(dp2855
g25
g76
sg188
g2847
sg189
Nsg214
g63
sg215
Nsbasg214
g55
sg215
Nsbag1
(g184
g3
Ntp2856
Rp2857
(dp2858
g25
g152
sg188
g2843
sg189
(lp2859
g1
(g184
g3
Ntp2860
Rp2861
(dp2862
g25
g161
sg188
g2857
sg189
Nsg214
g146
sg215
Nsbag1
(g184
g3
Ntp2863
Rp2864
(dp2865
g25
g161
sg188
g2857
sg189
Nsg214
g146
sg215
Nsbag1
(g184
g3
Ntp2866
Rp2867
(dp2868
g25
g44
sg188
g2857
sg189
Nsg214
g17
sg215
Nsbag1
(g184
g3
Ntp2869
Rp2870
(dp2871
g25
g26
sg188
g2857
sg189
Nsg214
g17
sg215
Nsbasg214
g56
sg215
Nsbag1
(g184
g3
Ntp2872
Rp2873
(dp2874
g25
g152
sg188
g2843
sg189
(lp2875
g1
(g184
g3
Ntp2876
Rp2877
(dp2878
g25
g161
sg188
g2873
sg189
Nsg214
g146
sg215
Nsbag1
(g184
g3
Ntp2879
Rp2880
(dp2881
g25
g161
sg188
g2873
sg189
Nsg214
g146
sg215
Nsbag1
(g184
g3
Ntp2882
Rp2883
(dp2884
g25
g44
sg188
g2873
sg189
Nsg214
g17
sg215
Nsbag1
(g184
g3
Ntp2885
Rp2886
(dp2887
g25
g48
sg188
g2873
sg189
Nsg214
g17
sg215
Nsbasg214
g56
sg215
Nsbasg214
g62
sg215
Nsbasg214
g49
sg215
Nsbasg214
g140
sg215
Nsbasg214
g90
sg215
Nsbasg214
g83
sg215
Nsbasg214
g77
sg215
Nsbsg251
F-2420.9421430202415
sg252
F-20.942143020241456
sg253
F1.0
sg254
F1.0
sg255
Nsg256
g257
sg260
Nsg261
F-2400.0
sg258
g259
sg262
I25
sbag1
(g2
g3
Ntp2888
Rp2889
(dp2890
g7
g10
sg181
Nsg182
Nsg183
g1
(g184
g3
Ntp2891
Rp2892
(dp2893
g25
g84
sg188
Nsg189
(lp2894
g1
(g184
g3
Ntp2895
Rp2896
(dp2897
g25
g96
sg188
g2892
sg189
(lp2898
g1
(g184
g3
Ntp2899
Rp2900
(dp2901
g25
g96
sg188
g2896
sg189
(lp2902
g1
(g184
g3
Ntp2903
Rp2904
(dp2905
g25
g96
sg188
g2900
sg189
(lp2906
g1
(g184
g3
Ntp2907
Rp2908
(dp2909
g25
g57
sg188
g2904
sg189
(lp2910
g1
(g184
g3
Ntp2911
Rp2912
(dp2913
g25
g107
sg188
g2908
sg189
(lp2914
g1
(g184
g3
Ntp2915
Rp2916
(dp2917
g25
g40
sg188
g2912
sg189
Nsg214
g17
sg215
Nsbag1
(g184
g3
Ntp2918
Rp2919
(dp2920
g25
g72
sg188
g2912
sg189
Nsg214
g63
sg215
Nsbasg214
g55
sg215
Nsbag1
(g184
g3
Ntp2921
Rp2922
(dp2923
g25
g167
sg188
g2908
sg189
(lp2924
g1
(g184
g3
Ntp2925
Rp2926
(dp2927
g25
g107
sg188
g2922
sg189
(lp2928
g1
(g184
g3
Ntp2929
Rp2930
(dp2931
g25
g48
sg188
g2926
sg189
Nsg214
g17
sg215
Nsbag1
(g184
g3
Ntp2932
Rp2933
(dp2934
g25
g76
sg188
g2926
sg189
Nsg214
g63
sg215
Nsbasg214
g55
sg215
Nsbag1
(g184
g3
Ntp2935
Rp2936
(dp2937
g25
g152
sg188
g2922
sg189
(lp2938
g1
(g184
g3
Ntp2939
Rp2940
(dp2941
g25
g161
sg188
g2936
sg189
Nsg214
g146
sg215
Nsbag1
(g184
g3
Ntp2942
Rp2943
(dp2944
g25
g161
sg188
g2936
sg189
Nsg214
g146
sg215
Nsbag1
(g184
g3
Ntp2945
Rp2946
(dp2947
g25
g44
sg188
g2936
sg189
Nsg214
g17
sg215
Nsbag1
(g184
g3
Ntp2948
Rp2949
(dp2950
g25
g26
sg188
g2936
sg189
Nsg214
g17
sg215
Nsbasg214
g56
sg215
Nsbag1
(g184
g3
Ntp2951
Rp2952
(dp2953
g25
g152
sg188
g2922
sg189
(lp2954
g1
(g184
g3
Ntp2955
Rp2956
(dp2957
g25
g161
sg188
g2952
sg189
Nsg214
g146
sg215
Nsbag1
(g184
g3
Ntp2958
Rp2959
(dp2960
g25
g161
sg188
g2952
sg189
Nsg214
g146
sg215
Nsbag1
(g184
g3
Ntp2961
Rp2962
(dp2963
g25
g44
sg188
g2952
sg189
Nsg214
g17
sg215
Nsbag1
(g184
g3
Ntp2964
Rp2965
(dp2966
g25
g48
sg188
g2952
sg189
Nsg214
g17
sg215
Nsbasg214
g56
sg215
Nsbasg214
g62
sg215
Nsbasg214
g49
sg215
Nsbasg214
g140
sg215
Nsbasg214
g90
sg215
Nsbasg214
g83
sg215
Nsbasg214
g77
sg215
Nsbsg251
F-2420.9421430202415
sg252
F-20.942143020241456
sg253
F1.0
sg254
F1.0
sg255
Nsg256
g257
sg260
Nsg261
F-2400.0
sg258
g259
sg262
I25
sbag1
(g2
g3
Ntp2967
Rp2968
(dp2969
g7
g10
sg181
Nsg182
Nsg183
g1
(g184
g3
Ntp2970
Rp2971
(dp2972
g25
g84
sg188
Nsg189
(lp2973
g1
(g184
g3
Ntp2974
Rp2975
(dp2976
g25
g96
sg188
g2971
sg189
(lp2977
g1
(g184
g3
Ntp2978
Rp2979
(dp2980
g25
g96
sg188
g2975
sg189
(lp2981
g1
(g184
g3
Ntp2982
Rp2983
(dp2984
g25
g96
sg188
g2979
sg189
(lp2985
g1
(g184
g3
Ntp2986
Rp2987
(dp2988
g25
g57
sg188
g2983
sg189
(lp2989
g1
(g184
g3
Ntp2990
Rp2991
(dp2992
g25
g107
sg188
g2987
sg189
(lp2993
g1
(g184
g3
Ntp2994
Rp2995
(dp2996
g25
g40
sg188
g2991
sg189
Nsg214
g17
sg215
Nsbag1
(g184
g3
Ntp2997
Rp2998
(dp2999
g25
g72
sg188
g2991
sg189
Nsg214
g63
sg215
Nsbasg214
g55
sg215
Nsbag1
(g184
g3
Ntp3000
Rp3001
(dp3002
g25
g167
sg188
g2987
sg189
(lp3003
g1
(g184
g3
Ntp3004
Rp3005
(dp3006
g25
g107
sg188
g3001
sg189
(lp3007
g1
(g184
g3
Ntp3008
Rp3009
(dp3010
g25
g48
sg188
g3005
sg189
Nsg214
g17
sg215
Nsbag1
(g184
g3
Ntp3011
Rp3012
(dp3013
g25
g76
sg188
g3005
sg189
Nsg214
g63
sg215
Nsbasg214
g55
sg215
Nsbag1
(g184
g3
Ntp3014
Rp3015
(dp3016
g25
g152
sg188
g3001
sg189
(lp3017
g1
(g184
g3
Ntp3018
Rp3019
(dp3020
g25
g161
sg188
g3015
sg189
Nsg214
g146
sg215
Nsbag1
(g184
g3
Ntp3021
Rp3022
(dp3023
g25
g161
sg188
g3015
sg189
Nsg214
g146
sg215
Nsbag1
(g184
g3
Ntp3024
Rp3025
(dp3026
g25
g44
sg188
g3015
sg189
Nsg214
g17
sg215
Nsbag1
(g184
g3
Ntp3027
Rp3028
(dp3029
g25
g26
sg188
g3015
sg189
Nsg214
g17
sg215
Nsbasg214
g56
sg215
Nsbag1
(g184
g3
Ntp3030
Rp3031
(dp3032
g25
g152
sg188
g3001
sg189
(lp3033
g1
(g184
g3
Ntp3034
Rp3035
(dp3036
g25
g161
sg188
g3031
sg189
Nsg214
g146
sg215
Nsbag1
(g184
g3
Ntp3037
Rp3038
(dp3039
g25
g161
sg188
g3031
sg189
Nsg214
g146
sg215
Nsbag1
(g184
g3
Ntp3040
Rp3041
(dp3042
g25
g44
sg188
g3031
sg189
Nsg214
g17
sg215
Nsbag1
(g184
g3
Ntp3043
Rp3044
(dp3045
g25
g44
sg188
g3031
sg189
Nsg214
g17
sg215
Nsbasg214
g56
sg215
Nsbasg214
g62
sg215
Nsbasg214
g49
sg215
Nsbasg214
g140
sg215
Nsbasg214
g90
sg215
Nsbasg214
g83
sg215
Nsbasg214
g77
sg215
Nsbsg251
F-2419.332705107807
sg252
F-19.332705107807353
sg253
F1.0
sg254
F1.0
sg255
Nsg256
g257
sg260
Nsg261
F-2400.0
sg258
g259
sg262
I25
sbag1
(g2
g3
Ntp3046
Rp3047
(dp3048
g7
g10
sg181
Nsg182
Nsg183
g1
(g184
g3
Ntp3049
Rp3050
(dp3051
g25
g84
sg188
Nsg189
(lp3052
g1
(g184
g3
Ntp3053
Rp3054
(dp3055
g25
g96
sg188
g3050
sg189
(lp3056
g1
(g184
g3
Ntp3057
Rp3058
(dp3059
g25
g96
sg188
g3054
sg189
(lp3060
g1
(g184
g3
Ntp3061
Rp3062
(dp3063
g25
g96
sg188
g3058
sg189
(lp3064
g1
(g184
g3
Ntp3065
Rp3066
(dp3067
g25
g57
sg188
g3062
sg189
(lp3068
g1
(g184
g3
Ntp3069
Rp3070
(dp3071
g25
g107
sg188
g3066
sg189
(lp3072
g1
(g184
g3
Ntp3073
Rp3074
(dp3075
g25
g40
sg188
g3070
sg189
Nsg214
g17
sg215
Nsbag1
(g184
g3
Ntp3076
Rp3077
(dp3078
g25
g72
sg188
g3070
sg189
Nsg214
g63
sg215
Nsbasg214
g55
sg215
Nsbag1
(g184
g3
Ntp3079
Rp3080
(dp3081
g25
g167
sg188
g3066
sg189
(lp3082
g1
(g184
g3
Ntp3083
Rp3084
(dp3085
g25
g107
sg188
g3080
sg189
(lp3086
g1
(g184
g3
Ntp3087
Rp3088
(dp3089
g25
g48
sg188
g3084
sg189
Nsg214
g17
sg215
Nsbag1
(g184
g3
Ntp3090
Rp3091
(dp3092
g25
g76
sg188
g3084
sg189
Nsg214
g63
sg215
Nsbasg214
g55
sg215
Nsbag1
(g184
g3
Ntp3093
Rp3094
(dp3095
g25
g152
sg188
g3080
sg189
(lp3096
g1
(g184
g3
Ntp3097
Rp3098
(dp3099
g25
g161
sg188
g3094
sg189
Nsg214
g146
sg215
Nsbag1
(g184
g3
Ntp3100
Rp3101
(dp3102
g25
g161
sg188
g3094
sg189
Nsg214
g146
sg215
Nsbag1
(g184
g3
Ntp3103
Rp3104
(dp3105
g25
g44
sg188
g3094
sg189
Nsg214
g17
sg215
Nsbag1
(g184
g3
Ntp3106
Rp3107
(dp3108
g25
g26
sg188
g3094
sg189
Nsg214
g17
sg215
Nsbasg214
g56
sg215
Nsbag1
(g184
g3
Ntp3109
Rp3110
(dp3111
g25
g152
sg188
g3080
sg189
(lp3112
g1
(g184
g3
Ntp3113
Rp3114
(dp3115
g25
g161
sg188
g3110
sg189
Nsg214
g146
sg215
Nsbag1
(g184
g3
Ntp3116
Rp3117
(dp3118
g25
g161
sg188
g3110
sg189
Nsg214
g146
sg215
Nsbag1
(g184
g3
Ntp3119
Rp3120
(dp3121
g25
g44
sg188
g3110
sg189
Nsg214
g17
sg215
Nsbag1
(g184
g3
Ntp3122
Rp3123
(dp3124
g25
g44
sg188
g3110
sg189
Nsg214
g17
sg215
Nsbasg214
g56
sg215
Nsbasg214
g62
sg215
Nsbasg214
g49
sg215
Nsbasg214
g140
sg215
Nsbasg214
g90
sg215
Nsbasg214
g83
sg215
Nsbasg214
g77
sg215
Nsbsg251
F-2419.332705107807
sg252
F-19.332705107807353
sg253
F1.0
sg254
F1.0
sg255
Nsg256
g257
sg260
Nsg261
F-2400.0
sg258
g259
sg262
I25
sbag1
(g2
g3
Ntp3125
Rp3126
(dp3127
g7
g10
sg181
Nsg182
Nsg183
g1
(g184
g3
Ntp3128
Rp3129
(dp3130
g25
g84
sg188
Nsg189
(lp3131
g1
(g184
g3
Ntp3132
Rp3133
(dp3134
g25
g96
sg188
g3129
sg189
(lp3135
g1
(g184
g3
Ntp3136
Rp3137
(dp3138
g25
g96
sg188
g3133
sg189
(lp3139
g1
(g184
g3
Ntp3140
Rp3141
(dp3142
g25
g96
sg188
g3137
sg189
(lp3143
g1
(g184
g3
Ntp3144
Rp3145
(dp3146
g25
g57
sg188
g3141
sg189
(lp3147
g1
(g184
g3
Ntp3148
Rp3149
(dp3150
g25
g107
sg188
g3145
sg189
(lp3151
g1
(g184
g3
Ntp3152
Rp3153
(dp3154
g25
g40
sg188
g3149
sg189
Nsg214
g17
sg215
Nsbag1
(g184
g3
Ntp3155
Rp3156
(dp3157
g25
g72
sg188
g3149
sg189
Nsg214
g63
sg215
Nsbasg214
g55
sg215
Nsbag1
(g184
g3
Ntp3158
Rp3159
(dp3160
g25
g167
sg188
g3145
sg189
(lp3161
g1
(g184
g3
Ntp3162
Rp3163
(dp3164
g25
g107
sg188
g3159
sg189
(lp3165
g1
(g184
g3
Ntp3166
Rp3167
(dp3168
g25
g48
sg188
g3163
sg189
Nsg214
g17
sg215
Nsbag1
(g184
g3
Ntp3169
Rp3170
(dp3171
g25
g76
sg188
g3163
sg189
Nsg214
g63
sg215
Nsbasg214
g55
sg215
Nsbag1
(g184
g3
Ntp3172
Rp3173
(dp3174
g25
g152
sg188
g3159
sg189
(lp3175
g1
(g184
g3
Ntp3176
Rp3177
(dp3178
g25
g161
sg188
g3173
sg189
Nsg214
g146
sg215
Nsbag1
(g184
g3
Ntp3179
Rp3180
(dp3181
g25
g161
sg188
g3173
sg189
Nsg214
g146
sg215
Nsbag1
(g184
g3
Ntp3182
Rp3183
(dp3184
g25
g32
sg188
g3173
sg189
Nsg214
g17
sg215
Nsbag1
(g184
g3
Ntp3185
Rp3186
(dp3187
g25
g26
sg188
g3173
sg189
Nsg214
g17
sg215
Nsbasg214
g56
sg215
Nsbag1
(g184
g3
Ntp3188
Rp3189
(dp3190
g25
g152
sg188
g3159
sg189
(lp3191
g1
(g184
g3
Ntp3192
Rp3193
(dp3194
g25
g161
sg188
g3189
sg189
Nsg214
g146
sg215
Nsbag1
(g184
g3
Ntp3195
Rp3196
(dp3197
g25
g161
sg188
g3189
sg189
Nsg214
g146
sg215
Nsbag1
(g184
g3
Ntp3198
Rp3199
(dp3200
g25
g44
sg188
g3189
sg189
Nsg214
g17
sg215
Nsbag1
(g184
g3
Ntp3201
Rp3202
(dp3203
g25
g44
sg188
g3189
sg189
Nsg214
g17
sg215
Nsbasg214
g56
sg215
Nsbasg214
g62
sg215
Nsbasg214
g49
sg215
Nsbasg214
g140
sg215
Nsbasg214
g90
sg215
Nsbasg214
g83
sg215
Nsbasg214
g77
sg215
Nsbsg251
F-2420.9421430202415
sg252
F-20.942143020241453
sg253
F1.0
sg254
F1.0
sg255
Nsg256
g257
sg260
Nsg261
F-2400.0
sg258
g259
sg262
I25
sbag1
(g2
g3
Ntp3204
Rp3205
(dp3206
g7
g10
sg181
Nsg182
Nsg183
g1
(g184
g3
Ntp3207
Rp3208
(dp3209
g25
g84
sg188
Nsg189
(lp3210
g1
(g184
g3
Ntp3211
Rp3212
(dp3213
g25
g96
sg188
g3208
sg189
(lp3214
g1
(g184
g3
Ntp3215
Rp3216
(dp3217
g25
g96
sg188
g3212
sg189
(lp3218
g1
(g184
g3
Ntp3219
Rp3220
(dp3221
g25
g96
sg188
g3216
sg189
(lp3222
g1
(g184
g3
Ntp3223
Rp3224
(dp3225
g25
g57
sg188
g3220
sg189
(lp3226
g1
(g184
g3
Ntp3227
Rp3228
(dp3229
g25
g107
sg188
g3224
sg189
(lp3230
g1
(g184
g3
Ntp3231
Rp3232
(dp3233
g25
g40
sg188
g3228
sg189
Nsg214
g17
sg215
Nsbag1
(g184
g3
Ntp3234
Rp3235
(dp3236
g25
g72
sg188
g3228
sg189
Nsg214
g63
sg215
Nsbasg214
g55
sg215
Nsbag1
(g184
g3
Ntp3237
Rp3238
(dp3239
g25
g167
sg188
g3224
sg189
(lp3240
g1
(g184
g3
Ntp3241
Rp3242
(dp3243
g25
g107
sg188
g3238
sg189
(lp3244
g1
(g184
g3
Ntp3245
Rp3246
(dp3247
g25
g48
sg188
g3242
sg189
Nsg214
g17
sg215
Nsbag1
(g184
g3
Ntp3248
Rp3249
(dp3250
g25
g76
sg188
g3242
sg189
Nsg214
g63
sg215
Nsbasg214
g55
sg215
Nsbag1
(g184
g3
Ntp3251
Rp3252
(dp3253
g25
g152
sg188
g3238
sg189
(lp3254
g1
(g184
g3
Ntp3255
Rp3256
(dp3257
g25
g161
sg188
g3252
sg189
Nsg214
g146
sg215
Nsbag1
(g184
g3
Ntp3258
Rp3259
(dp3260
g25
g161
sg188
g3252
sg189
Nsg214
g146
sg215
Nsbag1
(g184
g3
Ntp3261
Rp3262
(dp3263
g25
g32
sg188
g3252
sg189
Nsg214
g17
sg215
Nsbag1
(g184
g3
Ntp3264
Rp3265
(dp3266
g25
g26
sg188
g3252
sg189
Nsg214
g17
sg215
Nsbasg214
g56
sg215
Nsbag1
(g184
g3
Ntp3267
Rp3268
(dp3269
g25
g152
sg188
g3238
sg189
(lp3270
g1
(g184
g3
Ntp3271
Rp3272
(dp3273
g25
g161
sg188
g3268
sg189
Nsg214
g146
sg215
Nsbag1
(g184
g3
Ntp3274
Rp3275
(dp3276
g25
g161
sg188
g3268
sg189
Nsg214
g146
sg215
Nsbag1
(g184
g3
Ntp3277
Rp3278
(dp3279
g25
g44
sg188
g3268
sg189
Nsg214
g17
sg215
Nsbag1
(g184
g3
Ntp3280
Rp3281
(dp3282
g25
g44
sg188
g3268
sg189
Nsg214
g17
sg215
Nsbasg214
g56
sg215
Nsbasg214
g62
sg215
Nsbasg214
g49
sg215
Nsbasg214
g140
sg215
Nsbasg214
g90
sg215
Nsbasg214
g83
sg215
Nsbasg214
g77
sg215
Nsbsg251
F-2420.9421430202415
sg252
F-20.942143020241453
sg253
F1.0
sg254
F1.0
sg255
Nsg256
g257
sg260
Nsg261
F-2400.0
sg258
g259
sg262
I25
sbag1
(g2
g3
Ntp3283
Rp3284
(dp3285
g7
g10
sg181
Nsg182
Nsg183
g1
(g184
g3
Ntp3286
Rp3287
(dp3288
g25
g84
sg188
Nsg189
(lp3289
g1
(g184
g3
Ntp3290
Rp3291
(dp3292
g25
g96
sg188
g3287
sg189
(lp3293
g1
(g184
g3
Ntp3294
Rp3295
(dp3296
g25
g96
sg188
g3291
sg189
(lp3297
g1
(g184
g3
Ntp3298
Rp3299
(dp3300
g25
g96
sg188
g3295
sg189
(lp3301
g1
(g184
g3
Ntp3302
Rp3303
(dp3304
g25
g57
sg188
g3299
sg189
(lp3305
g1
(g184
g3
Ntp3306
Rp3307
(dp3308
g25
g107
sg188
g3303
sg189
(lp3309
g1
(g184
g3
Ntp3310
Rp3311
(dp3312
g25
g40
sg188
g3307
sg189
Nsg214
g17
sg215
Nsbag1
(g184
g3
Ntp3313
Rp3314
(dp3315
g25
g72
sg188
g3307
sg189
Nsg214
g63
sg215
Nsbasg214
g55
sg215
Nsbag1
(g184
g3
Ntp3316
Rp3317
(dp3318
g25
g167
sg188
g3303
sg189
(lp3319
g1
(g184
g3
Ntp3320
Rp3321
(dp3322
g25
g102
sg188
g3317
sg189
(lp3323
g1
(g184
g3
Ntp3324
Rp3325
(dp3326
g25
g44
sg188
g3321
sg189
Nsg214
g17
sg215
Nsbag1
(g184
g3
Ntp3327
Rp3328
(dp3329
g25
g76
sg188
g3321
sg189
Nsg214
g63
sg215
Nsbasg214
g55
sg215
Nsbag1
(g184
g3
Ntp3330
Rp3331
(dp3332
g25
g152
sg188
g3317
sg189
(lp3333
g1
(g184
g3
Ntp3334
Rp3335
(dp3336
g25
g161
sg188
g3331
sg189
Nsg214
g146
sg215
Nsbag1
(g184
g3
Ntp3337
Rp3338
(dp3339
g25
g161
sg188
g3331
sg189
Nsg214
g146
sg215
Nsbag1
(g184
g3
Ntp3340
Rp3341
(dp3342
g25
g32
sg188
g3331
sg189
Nsg214
g17
sg215
Nsbag1
(g184
g3
Ntp3343
Rp3344
(dp3345
g25
g26
sg188
g3331
sg189
Nsg214
g17
sg215
Nsbasg214
g56
sg215
Nsbag1
(g184
g3
Ntp3346
Rp3347
(dp3348
g25
g152
sg188
g3317
sg189
(lp3349
g1
(g184
g3
Ntp3350
Rp3351
(dp3352
g25
g161
sg188
g3347
sg189
Nsg214
g146
sg215
Nsbag1
(g184
g3
Ntp3353
Rp3354
(dp3355
g25
g161
sg188
g3347
sg189
Nsg214
g146
sg215
Nsbag1
(g184
g3
Ntp3356
Rp3357
(dp3358
g25
g44
sg188
g3347
sg189
Nsg214
g17
sg215
Nsbag1
(g184
g3
Ntp3359
Rp3360
(dp3361
g25
g44
sg188
g3347
sg189
Nsg214
g17
sg215
Nsbasg214
g56
sg215
Nsbasg214
g62
sg215
Nsbasg214
g49
sg215
Nsbasg214
g140
sg215
Nsbasg214
g90
sg215
Nsbasg214
g83
sg215
Nsbasg214
g77
sg215
Nsbsg251
F-2419.332705107807
sg252
F-19.332705107807353
sg253
F1.0
sg254
F1.0
sg255
Nsg256
g257
sg260
Nsg261
F-2400.0
sg258
g259
sg262
I25
sbag3284
ag1
(g2
g3
Ntp3362
Rp3363
(dp3364
g7
g10
sg181
Nsg182
Nsg183
g1
(g184
g3
Ntp3365
Rp3366
(dp3367
g25
g84
sg188
Nsg189
(lp3368
g1
(g184
g3
Ntp3369
Rp3370
(dp3371
g25
g96
sg188
g3366
sg189
(lp3372
g1
(g184
g3
Ntp3373
Rp3374
(dp3375
g25
g96
sg188
g3370
sg189
(lp3376
g1
(g184
g3
Ntp3377
Rp3378
(dp3379
g25
g96
sg188
g3374
sg189
(lp3380
g1
(g184
g3
Ntp3381
Rp3382
(dp3383
g25
g57
sg188
g3378
sg189
(lp3384
g1
(g184
g3
Ntp3385
Rp3386
(dp3387
g25
g107
sg188
g3382
sg189
(lp3388
g1
(g184
g3
Ntp3389
Rp3390
(dp3391
g25
g40
sg188
g3386
sg189
Nsg214
g17
sg215
Nsbag1
(g184
g3
Ntp3392
Rp3393
(dp3394
g25
g72
sg188
g3386
sg189
Nsg214
g63
sg215
Nsbasg214
g55
sg215
Nsbag1
(g184
g3
Ntp3395
Rp3396
(dp3397
g25
g167
sg188
g3382
sg189
(lp3398
g1
(g184
g3
Ntp3399
Rp3400
(dp3401
g25
g102
sg188
g3396
sg189
(lp3402
g1
(g184
g3
Ntp3403
Rp3404
(dp3405
g25
g44
sg188
g3400
sg189
Nsg214
g17
sg215
Nsbag1
(g184
g3
Ntp3406
Rp3407
(dp3408
g25
g76
sg188
g3400
sg189
Nsg214
g63
sg215
Nsbasg214
g55
sg215
Nsbag1
(g184
g3
Ntp3409
Rp3410
(dp3411
g25
g152
sg188
g3396
sg189
(lp3412
g1
(g184
g3
Ntp3413
Rp3414
(dp3415
g25
g161
sg188
g3410
sg189
Nsg214
g146
sg215
Nsbag1
(g184
g3
Ntp3416
Rp3417
(dp3418
g25
g161
sg188
g3410
sg189
Nsg214
g146
sg215
Nsbag1
(g184
g3
Ntp3419
Rp3420
(dp3421
g25
g32
sg188
g3410
sg189
Nsg214
g17
sg215
Nsbag1
(g184
g3
Ntp3422
Rp3423
(dp3424
g25
g26
sg188
g3410
sg189
Nsg214
g17
sg215
Nsbasg214
g56
sg215
Nsbag1
(g184
g3
Ntp3425
Rp3426
(dp3427
g25
g152
sg188
g3396
sg189
(lp3428
g1
(g184
g3
Ntp3429
Rp3430
(dp3431
g25
g161
sg188
g3426
sg189
Nsg214
g146
sg215
Nsbag1
(g184
g3
Ntp3432
Rp3433
(dp3434
g25
g161
sg188
g3426
sg189
Nsg214
g146
sg215
Nsbag1
(g184
g3
Ntp3435
Rp3436
(dp3437
g25
g44
sg188
g3426
sg189
Nsg214
g17
sg215
Nsbag1
(g184
g3
Ntp3438
Rp3439
(dp3440
g25
g26
sg188
g3426
sg189
Nsg214
g17
sg215
Nsbasg214
g56
sg215
Nsbasg214
g62
sg215
Nsbasg214
g49
sg215
Nsbasg214
g140
sg215
Nsbasg214
g90
sg215
Nsbasg214
g83
sg215
Nsbasg214
g77
sg215
Nsbsg251
F-2420.9421430202415
sg252
F-20.942143020241456
sg253
F1.0
sg254
F1.0
sg255
Nsg256
g257
sg260
Nsg261
F-2400.0
sg258
g259
sg262
I25
sbag1
(g2
g3
Ntp3441
Rp3442
(dp3443
g7
g10
sg181
Nsg182
Nsg183
g1
(g184
g3
Ntp3444
Rp3445
(dp3446
g25
g84
sg188
Nsg189
(lp3447
g1
(g184
g3
Ntp3448
Rp3449
(dp3450
g25
g96
sg188
g3445
sg189
(lp3451
g1
(g184
g3
Ntp3452
Rp3453
(dp3454
g25
g96
sg188
g3449
sg189
(lp3455
g1
(g184
g3
Ntp3456
Rp3457
(dp3458
g25
g96
sg188
g3453
sg189
(lp3459
g1
(g184
g3
Ntp3460
Rp3461
(dp3462
g25
g57
sg188
g3457
sg189
(lp3463
g1
(g184
g3
Ntp3464
Rp3465
(dp3466
g25
g107
sg188
g3461
sg189
(lp3467
g1
(g184
g3
Ntp3468
Rp3469
(dp3470
g25
g40
sg188
g3465
sg189
Nsg214
g17
sg215
Nsbag1
(g184
g3
Ntp3471
Rp3472
(dp3473
g25
g72
sg188
g3465
sg189
Nsg214
g63
sg215
Nsbasg214
g55
sg215
Nsbag1
(g184
g3
Ntp3474
Rp3475
(dp3476
g25
g167
sg188
g3461
sg189
(lp3477
g1
(g184
g3
Ntp3478
Rp3479
(dp3480
g25
g102
sg188
g3475
sg189
(lp3481
g1
(g184
g3
Ntp3482
Rp3483
(dp3484
g25
g44
sg188
g3479
sg189
Nsg214
g17
sg215
Nsbag1
(g184
g3
Ntp3485
Rp3486
(dp3487
g25
g76
sg188
g3479
sg189
Nsg214
g63
sg215
Nsbasg214
g55
sg215
Nsbag1
(g184
g3
Ntp3488
Rp3489
(dp3490
g25
g152
sg188
g3475
sg189
(lp3491
g1
(g184
g3
Ntp3492
Rp3493
(dp3494
g25
g161
sg188
g3489
sg189
Nsg214
g146
sg215
Nsbag1
(g184
g3
Ntp3495
Rp3496
(dp3497
g25
g161
sg188
g3489
sg189
Nsg214
g146
sg215
Nsbag1
(g184
g3
Ntp3498
Rp3499
(dp3500
g25
g32
sg188
g3489
sg189
Nsg214
g17
sg215
Nsbag1
(g184
g3
Ntp3501
Rp3502
(dp3503
g25
g26
sg188
g3489
sg189
Nsg214
g17
sg215
Nsbasg214
g56
sg215
Nsbag1
(g184
g3
Ntp3504
Rp3505
(dp3506
g25
g152
sg188
g3475
sg189
(lp3507
g1
(g184
g3
Ntp3508
Rp3509
(dp3510
g25
g161
sg188
g3505
sg189
Nsg214
g146
sg215
Nsbag1
(g184
g3
Ntp3511
Rp3512
(dp3513
g25
g161
sg188
g3505
sg189
Nsg214
g146
sg215
Nsbag1
(g184
g3
Ntp3514
Rp3515
(dp3516
g25
g44
sg188
g3505
sg189
Nsg214
g17
sg215
Nsbag1
(g184
g3
Ntp3517
Rp3518
(dp3519
g25
g26
sg188
g3505
sg189
Nsg214
g17
sg215
Nsbasg214
g56
sg215
Nsbasg214
g62
sg215
Nsbasg214
g49
sg215
Nsbasg214
g140
sg215
Nsbasg214
g90
sg215
Nsbasg214
g83
sg215
Nsbasg214
g77
sg215
Nsbsg251
F-2420.9421430202415
sg252
F-20.942143020241456
sg253
F1.0
sg254
F1.0
sg255
Nsg256
g257
sg260
Nsg261
F-2400.0
sg258
g259
sg262
I25
sbag1
(g2
g3
Ntp3520
Rp3521
(dp3522
g7
g10
sg181
Nsg182
Nsg183
g1
(g184
g3
Ntp3523
Rp3524
(dp3525
g25
g84
sg188
Nsg189
(lp3526
g1
(g184
g3
Ntp3527
Rp3528
(dp3529
g25
g96
sg188
g3524
sg189
(lp3530
g1
(g184
g3
Ntp3531
Rp3532
(dp3533
g25
g96
sg188
g3528
sg189
(lp3534
g1
(g184
g3
Ntp3535
Rp3536
(dp3537
g25
g96
sg188
g3532
sg189
(lp3538
g1
(g184
g3
Ntp3539
Rp3540
(dp3541
g25
g57
sg188
g3536
sg189
(lp3542
g1
(g184
g3
Ntp3543
Rp3544
(dp3545
g25
g107
sg188
g3540
sg189
(lp3546
g1
(g184
g3
Ntp3547
Rp3548
(dp3549
g25
g40
sg188
g3544
sg189
Nsg214
g17
sg215
Nsbag1
(g184
g3
Ntp3550
Rp3551
(dp3552
g25
g72
sg188
g3544
sg189
Nsg214
g63
sg215
Nsbasg214
g55
sg215
Nsbag1
(g184
g3
Ntp3553
Rp3554
(dp3555
g25
g167
sg188
g3540
sg189
(lp3556
g1
(g184
g3
Ntp3557
Rp3558
(dp3559
g25
g102
sg188
g3554
sg189
(lp3560
g1
(g184
g3
Ntp3561
Rp3562
(dp3563
g25
g44
sg188
g3558
sg189
Nsg214
g17
sg215
Nsbag1
(g184
g3
Ntp3564
Rp3565
(dp3566
g25
g76
sg188
g3558
sg189
Nsg214
g63
sg215
Nsbasg214
g55
sg215
Nsbag1
(g184
g3
Ntp3567
Rp3568
(dp3569
g25
g152
sg188
g3554
sg189
(lp3570
g1
(g184
g3
Ntp3571
Rp3572
(dp3573
g25
g161
sg188
g3568
sg189
Nsg214
g146
sg215
Nsbag1
(g184
g3
Ntp3574
Rp3575
(dp3576
g25
g161
sg188
g3568
sg189
Nsg214
g146
sg215
Nsbag1
(g184
g3
Ntp3577
Rp3578
(dp3579
g25
g32
sg188
g3568
sg189
Nsg214
g17
sg215
Nsbag1
(g184
g3
Ntp3580
Rp3581
(dp3582
g25
g26
sg188
g3568
sg189
Nsg214
g17
sg215
Nsbasg214
g56
sg215
Nsbag1
(g184
g3
Ntp3583
Rp3584
(dp3585
g25
g152
sg188
g3554
sg189
(lp3586
g1
(g184
g3
Ntp3587
Rp3588
(dp3589
g25
g161
sg188
g3584
sg189
Nsg214
g146
sg215
Nsbag1
(g184
g3
Ntp3590
Rp3591
(dp3592
g25
g161
sg188
g3584
sg189
Nsg214
g146
sg215
Nsbag1
(g184
g3
Ntp3593
Rp3594
(dp3595
g25
g44
sg188
g3584
sg189
Nsg214
g17
sg215
Nsbag1
(g184
g3
Ntp3596
Rp3597
(dp3598
g25
g26
sg188
g3584
sg189
Nsg214
g17
sg215
Nsbasg214
g56
sg215
Nsbasg214
g62
sg215
Nsbasg214
g49
sg215
Nsbasg214
g140
sg215
Nsbasg214
g90
sg215
Nsbasg214
g83
sg215
Nsbasg214
g77
sg215
Nsbsg251
F-2420.9421430202415
sg252
F-20.942143020241456
sg253
F1.0
sg254
F1.0
sg255
Nsg256
g257
sg260
Nsg261
F-2400.0
sg258
g259
sg262
I25
sbag1
(g2
g3
Ntp3599
Rp3600
(dp3601
g7
g10
sg181
Nsg182
Nsg183
g1
(g184
g3
Ntp3602
Rp3603
(dp3604
g25
g84
sg188
Nsg189
(lp3605
g1
(g184
g3
Ntp3606
Rp3607
(dp3608
g25
g96
sg188
g3603
sg189
(lp3609
g1
(g184
g3
Ntp3610
Rp3611
(dp3612
g25
g96
sg188
g3607
sg189
(lp3613
g1
(g184
g3
Ntp3614
Rp3615
(dp3616
g25
g96
sg188
g3611
sg189
(lp3617
g1
(g184
g3
Ntp3618
Rp3619
(dp3620
g25
g57
sg188
g3615
sg189
(lp3621
g1
(g184
g3
Ntp3622
Rp3623
(dp3624
g25
g107
sg188
g3619
sg189
(lp3625
g1
(g184
g3
Ntp3626
Rp3627
(dp3628
g25
g40
sg188
g3623
sg189
Nsg214
g17
sg215
Nsbag1
(g184
g3
Ntp3629
Rp3630
(dp3631
g25
g72
sg188
g3623
sg189
Nsg214
g63
sg215
Nsbasg214
g55
sg215
Nsbag1
(g184
g3
Ntp3632
Rp3633
(dp3634
g25
g167
sg188
g3619
sg189
(lp3635
g1
(g184
g3
Ntp3636
Rp3637
(dp3638
g25
g102
sg188
g3633
sg189
(lp3639
g1
(g184
g3
Ntp3640
Rp3641
(dp3642
g25
g44
sg188
g3637
sg189
Nsg214
g17
sg215
Nsbag1
(g184
g3
Ntp3643
Rp3644
(dp3645
g25
g76
sg188
g3637
sg189
Nsg214
g63
sg215
Nsbasg214
g55
sg215
Nsbag1
(g184
g3
Ntp3646
Rp3647
(dp3648
g25
g152
sg188
g3633
sg189
(lp3649
g1
(g184
g3
Ntp3650
Rp3651
(dp3652
g25
g161
sg188
g3647
sg189
Nsg214
g146
sg215
Nsbag1
(g184
g3
Ntp3653
Rp3654
(dp3655
g25
g161
sg188
g3647
sg189
Nsg214
g146
sg215
Nsbag1
(g184
g3
Ntp3656
Rp3657
(dp3658
g25
g32
sg188
g3647
sg189
Nsg214
g17
sg215
Nsbag1
(g184
g3
Ntp3659
Rp3660
(dp3661
g25
g44
sg188
g3647
sg189
Nsg214
g17
sg215
Nsbasg214
g56
sg215
Nsbag1
(g184
g3
Ntp3662
Rp3663
(dp3664
g25
g152
sg188
g3633
sg189
(lp3665
g1
(g184
g3
Ntp3666
Rp3667
(dp3668
g25
g161
sg188
g3663
sg189
Nsg214
g146
sg215
Nsbag1
(g184
g3
Ntp3669
Rp3670
(dp3671
g25
g161
sg188
g3663
sg189
Nsg214
g146
sg215
Nsbag1
(g184
g3
Ntp3672
Rp3673
(dp3674
g25
g44
sg188
g3663
sg189
Nsg214
g17
sg215
Nsbag1
(g184
g3
Ntp3675
Rp3676
(dp3677
g25
g26
sg188
g3663
sg189
Nsg214
g17
sg215
Nsbasg214
g56
sg215
Nsbasg214
g62
sg215
Nsbasg214
g49
sg215
Nsbasg214
g140
sg215
Nsbasg214
g90
sg215
Nsbasg214
g83
sg215
Nsbasg214
g77
sg215
Nsbsg251
F-2419.332705107807
sg252
F-19.332705107807353
sg253
F1.0
sg254
F1.0
sg255
Nsg256
g257
sg260
Nsg261
F-2400.0
sg258
g259
sg262
I25
sbag1
(g2
g3
Ntp3678
Rp3679
(dp3680
g7
g10
sg181
Nsg182
Nsg183
g1
(g184
g3
Ntp3681
Rp3682
(dp3683
g25
g84
sg188
Nsg189
(lp3684
g1
(g184
g3
Ntp3685
Rp3686
(dp3687
g25
g96
sg188
g3682
sg189
(lp3688
g1
(g184
g3
Ntp3689
Rp3690
(dp3691
g25
g96
sg188
g3686
sg189
(lp3692
g1
(g184
g3
Ntp3693
Rp3694
(dp3695
g25
g96
sg188
g3690
sg189
(lp3696
g1
(g184
g3
Ntp3697
Rp3698
(dp3699
g25
g57
sg188
g3694
sg189
(lp3700
g1
(g184
g3
Ntp3701
Rp3702
(dp3703
g25
g107
sg188
g3698
sg189
(lp3704
g1
(g184
g3
Ntp3705
Rp3706
(dp3707
g25
g40
sg188
g3702
sg189
Nsg214
g17
sg215
Nsbag1
(g184
g3
Ntp3708
Rp3709
(dp3710
g25
g72
sg188
g3702
sg189
Nsg214
g63
sg215
Nsbasg214
g55
sg215
Nsbag1
(g184
g3
Ntp3711
Rp3712
(dp3713
g25
g167
sg188
g3698
sg189
(lp3714
g1
(g184
g3
Ntp3715
Rp3716
(dp3717
g25
g102
sg188
g3712
sg189
(lp3718
g1
(g184
g3
Ntp3719
Rp3720
(dp3721
g25
g44
sg188
g3716
sg189
Nsg214
g17
sg215
Nsbag1
(g184
g3
Ntp3722
Rp3723
(dp3724
g25
g76
sg188
g3716
sg189
Nsg214
g63
sg215
Nsbasg214
g55
sg215
Nsbag1
(g184
g3
Ntp3725
Rp3726
(dp3727
g25
g152
sg188
g3712
sg189
(lp3728
g1
(g184
g3
Ntp3729
Rp3730
(dp3731
g25
g161
sg188
g3726
sg189
Nsg214
g146
sg215
Nsbag1
(g184
g3
Ntp3732
Rp3733
(dp3734
g25
g161
sg188
g3726
sg189
Nsg214
g146
sg215
Nsbag1
(g184
g3
Ntp3735
Rp3736
(dp3737
g25
g32
sg188
g3726
sg189
Nsg214
g17
sg215
Nsbag1
(g184
g3
Ntp3738
Rp3739
(dp3740
g25
g44
sg188
g3726
sg189
Nsg214
g17
sg215
Nsbasg214
g56
sg215
Nsbag1
(g184
g3
Ntp3741
Rp3742
(dp3743
g25
g152
sg188
g3712
sg189
(lp3744
g1
(g184
g3
Ntp3745
Rp3746
(dp3747
g25
g161
sg188
g3742
sg189
Nsg214
g146
sg215
Nsbag1
(g184
g3
Ntp3748
Rp3749
(dp3750
g25
g161
sg188
g3742
sg189
Nsg214
g146
sg215
Nsbag1
(g184
g3
Ntp3751
Rp3752
(dp3753
g25
g44
sg188
g3742
sg189
Nsg214
g17
sg215
Nsbag1
(g184
g3
Ntp3754
Rp3755
(dp3756
g25
g26
sg188
g3742
sg189
Nsg214
g17
sg215
Nsbasg214
g56
sg215
Nsbasg214
g62
sg215
Nsbasg214
g49
sg215
Nsbasg214
g140
sg215
Nsbasg214
g90
sg215
Nsbasg214
g83
sg215
Nsbasg214
g77
sg215
Nsbsg251
F-2419.332705107807
sg252
F-19.332705107807353
sg253
F1.0
sg254
F1.0
sg255
Nsg256
g257
sg260
Nsg261
F-2400.0
sg258
g259
sg262
I25
sbag1
(g2
g3
Ntp3757
Rp3758
(dp3759
g7
g10
sg181
Nsg182
Nsg183
g1
(g184
g3
Ntp3760
Rp3761
(dp3762
g25
g84
sg188
Nsg189
(lp3763
g1
(g184
g3
Ntp3764
Rp3765
(dp3766
g25
g96
sg188
g3761
sg189
(lp3767
g1
(g184
g3
Ntp3768
Rp3769
(dp3770
g25
g96
sg188
g3765
sg189
(lp3771
g1
(g184
g3
Ntp3772
Rp3773
(dp3774
g25
g96
sg188
g3769
sg189
(lp3775
g1
(g184
g3
Ntp3776
Rp3777
(dp3778
g25
g167
sg188
g3773
sg189
(lp3779
g1
(g184
g3
Ntp3780
Rp3781
(dp3782
g25
g130
sg188
g3777
sg189
Nsg214
g55
sg215
Nsbag1
(g184
g3
Ntp3783
Rp3784
(dp3785
g25
g147
sg188
g3777
sg189
(lp3786
g1
(g184
g3
Ntp3787
Rp3788
(dp3789
g25
g161
sg188
g3784
sg189
Nsg214
g146
sg215
Nsbag1
(g184
g3
Ntp3790
Rp3791
(dp3792
g25
g161
sg188
g3784
sg189
Nsg214
g146
sg215
Nsbag1
(g184
g3
Ntp3793
Rp3794
(dp3795
g25
g36
sg188
g3784
sg189
Nsg214
g17
sg215
Nsbag1
(g184
g3
Ntp3796
Rp3797
(dp3798
g25
g44
sg188
g3784
sg189
Nsg214
g17
sg215
Nsbag1
(g184
g3
Ntp3799
Rp3800
(dp3801
g25
g76
sg188
g3784
sg189
Nsg214
g63
sg215
Nsbasg214
g56
sg215
Nsbag1
(g184
g3
Ntp3802
Rp3803
(dp3804
g25
g156
sg188
g3777
sg189
Nsg214
g56
sg215
Nsbasg214
g62
sg215
Nsbasg214
g140
sg215
Nsbasg214
g90
sg215
Nsbasg214
g83
sg215
Nsbasg214
g77
sg215
Nsbsg251
F-2411.9061560354103
sg252
F-11.906156035410051
sg253
F1.0
sg254
F1.0
sg255
Nsg256
g257
sg260
Nsg261
F-2400.0
sg258
g259
sg262
I25
sbag3758
ag1
(g2
g3
Ntp3805
Rp3806
(dp3807
g7
g10
sg181
Nsg182
Nsg183
g1
(g184
g3
Ntp3808
Rp3809
(dp3810
g25
g84
sg188
Nsg189
(lp3811
g1
(g184
g3
Ntp3812
Rp3813
(dp3814
g25
g96
sg188
g3809
sg189
(lp3815
g1
(g184
g3
Ntp3816
Rp3817
(dp3818
g25
g96
sg188
g3813
sg189
(lp3819
g1
(g184
g3
Ntp3820
Rp3821
(dp3822
g25
g96
sg188
g3817
sg189
(lp3823
g1
(g184
g3
Ntp3824
Rp3825
(dp3826
g25
g167
sg188
g3821
sg189
(lp3827
g1
(g184
g3
Ntp3828
Rp3829
(dp3830
g25
g130
sg188
g3825
sg189
Nsg214
g55
sg215
Nsbag1
(g184
g3
Ntp3831
Rp3832
(dp3833
g25
g147
sg188
g3825
sg189
(lp3834
g1
(g184
g3
Ntp3835
Rp3836
(dp3837
g25
g161
sg188
g3832
sg189
Nsg214
g146
sg215
Nsbag1
(g184
g3
Ntp3838
Rp3839
(dp3840
g25
g161
sg188
g3832
sg189
Nsg214
g146
sg215
Nsbag1
(g184
g3
Ntp3841
Rp3842
(dp3843
g25
g36
sg188
g3832
sg189
Nsg214
g17
sg215
Nsbag1
(g184
g3
Ntp3844
Rp3845
(dp3846
g25
g44
sg188
g3832
sg189
Nsg214
g17
sg215
Nsbag1
(g184
g3
Ntp3847
Rp3848
(dp3849
g25
g76
sg188
g3832
sg189
Nsg214
g63
sg215
Nsbasg214
g56
sg215
Nsbag1
(g184
g3
Ntp3850
Rp3851
(dp3852
g25
g156
sg188
g3825
sg189
Nsg214
g56
sg215
Nsbasg214
g62
sg215
Nsbasg214
g140
sg215
Nsbasg214
g90
sg215
Nsbasg214
g83
sg215
Nsbasg214
g77
sg215
Nsbsg251
F-2411.9061560354103
sg252
F-11.906156035410051
sg253
F1.0
sg254
F1.0
sg255
Nsg256
g257
sg260
Nsg261
F-2400.0
sg258
g259
sg262
I25
sbag1
(g2
g3
Ntp3853
Rp3854
(dp3855
g7
g10
sg181
Nsg182
Nsg183
g1
(g184
g3
Ntp3856
Rp3857
(dp3858
g25
g84
sg188
Nsg189
(lp3859
g1
(g184
g3
Ntp3860
Rp3861
(dp3862
g25
g96
sg188
g3857
sg189
(lp3863
g1
(g184
g3
Ntp3864
Rp3865
(dp3866
g25
g96
sg188
g3861
sg189
(lp3867
g1
(g184
g3
Ntp3868
Rp3869
(dp3870
g25
g96
sg188
g3865
sg189
(lp3871
g1
(g184
g3
Ntp3872
Rp3873
(dp3874
g25
g167
sg188
g3869
sg189
(lp3875
g1
(g184
g3
Ntp3876
Rp3877
(dp3878
g25
g107
sg188
g3873
sg189
(lp3879
g1
(g184
g3
Ntp3880
Rp3881
(dp3882
g25
g44
sg188
g3877
sg189
Nsg214
g17
sg215
Nsbag1
(g184
g3
Ntp3883
Rp3884
(dp3885
g25
g76
sg188
g3877
sg189
Nsg214
g63
sg215
Nsbasg214
g55
sg215
Nsbag1
(g184
g3
Ntp3886
Rp3887
(dp3888
g25
g147
sg188
g3873
sg189
(lp3889
g1
(g184
g3
Ntp3890
Rp3891
(dp3892
g25
g161
sg188
g3887
sg189
Nsg214
g146
sg215
Nsbag1
(g184
g3
Ntp3893
Rp3894
(dp3895
g25
g161
sg188
g3887
sg189
Nsg214
g146
sg215
Nsbag1
(g184
g3
Ntp3896
Rp3897
(dp3898
g25
g36
sg188
g3887
sg189
Nsg214
g17
sg215
Nsbag1
(g184
g3
Ntp3899
Rp3900
(dp3901
g25
g44
sg188
g3887
sg189
Nsg214
g17
sg215
Nsbag1
(g184
g3
Ntp3902
Rp3903
(dp3904
g25
g76
sg188
g3887
sg189
Nsg214
g63
sg215
Nsbasg214
g56
sg215
Nsbag1
(g184
g3
Ntp3905
Rp3906
(dp3907
g25
g156
sg188
g3873
sg189
Nsg214
g56
sg215
Nsbasg214
g62
sg215
Nsbasg214
g140
sg215
Nsbasg214
g90
sg215
Nsbasg214
g83
sg215
Nsbasg214
g77
sg215
Nsbsg251
F-2413.6979155046383
sg252
F-13.697915504638106
sg253
F1.0
sg254
F1.0
sg255
Nsg256
g257
sg260
Nsg261
F-2400.0
sg258
g259
sg262
I25
sbag3854
ag3854
ag1
(g2
g3
Ntp3908
Rp3909
(dp3910
g7
g10
sg181
Nsg182
Nsg183
g1
(g184
g3
Ntp3911
Rp3912
(dp3913
g25
g84
sg188
Nsg189
(lp3914
g1
(g184
g3
Ntp3915
Rp3916
(dp3917
g25
g96
sg188
g3912
sg189
(lp3918
g1
(g184
g3
Ntp3919
Rp3920
(dp3921
g25
g96
sg188
g3916
sg189
(lp3922
g1
(g184
g3
Ntp3923
Rp3924
(dp3925
g25
g96
sg188
g3920
sg189
(lp3926
g1
(g184
g3
Ntp3927
Rp3928
(dp3929
g25
g167
sg188
g3924
sg189
(lp3930
g1
(g184
g3
Ntp3931
Rp3932
(dp3933
g25
g107
sg188
g3928
sg189
(lp3934
g1
(g184
g3
Ntp3935
Rp3936
(dp3937
g25
g44
sg188
g3932
sg189
Nsg214
g17
sg215
Nsbag1
(g184
g3
Ntp3938
Rp3939
(dp3940
g25
g76
sg188
g3932
sg189
Nsg214
g63
sg215
Nsbasg214
g55
sg215
Nsbag1
(g184
g3
Ntp3941
Rp3942
(dp3943
g25
g147
sg188
g3928
sg189
(lp3944
g1
(g184
g3
Ntp3945
Rp3946
(dp3947
g25
g161
sg188
g3942
sg189
Nsg214
g146
sg215
Nsbag1
(g184
g3
Ntp3948
Rp3949
(dp3950
g25
g161
sg188
g3942
sg189
Nsg214
g146
sg215
Nsbag1
(g184
g3
Ntp3951
Rp3952
(dp3953
g25
g48
sg188
g3942
sg189
Nsg214
g17
sg215
Nsbag1
(g184
g3
Ntp3954
Rp3955
(dp3956
g25
g44
sg188
g3942
sg189
Nsg214
g17
sg215
Nsbag1
(g184
g3
Ntp3957
Rp3958
(dp3959
g25
g76
sg188
g3942
sg189
Nsg214
g63
sg215
Nsbasg214
g56
sg215
Nsbag1
(g184
g3
Ntp3960
Rp3961
(dp3962
g25
g156
sg188
g3928
sg189
Nsg214
g56
sg215
Nsbasg214
g62
sg215
Nsbasg214
g140
sg215
Nsbasg214
g90
sg215
Nsbasg214
g83
sg215
Nsbasg214
g77
sg215
Nsbsg251
F-2413.6979155046383
sg252
F-13.697915504638106
sg253
F1.0
sg254
F1.0
sg255
Nsg256
g257
sg260
Nsg261
F-2400.0
sg258
g259
sg262
I25
sbag1
(g2
g3
Ntp3963
Rp3964
(dp3965
g7
g10
sg181
Nsg182
Nsg183
g1
(g184
g3
Ntp3966
Rp3967
(dp3968
g25
g84
sg188
Nsg189
(lp3969
g1
(g184
g3
Ntp3970
Rp3971
(dp3972
g25
g96
sg188
g3967
sg189
(lp3973
g1
(g184
g3
Ntp3974
Rp3975
(dp3976
g25
g96
sg188
g3971
sg189
(lp3977
g1
(g184
g3
Ntp3978
Rp3979
(dp3980
g25
g96
sg188
g3975
sg189
(lp3981
g1
(g184
g3
Ntp3982
Rp3983
(dp3984
g25
g167
sg188
g3979
sg189
(lp3985
g1
(g184
g3
Ntp3986
Rp3987
(dp3988
g25
g107
sg188
g3983
sg189
(lp3989
g1
(g184
g3
Ntp3990
Rp3991
(dp3992
g25
g44
sg188
g3987
sg189
Nsg214
g17
sg215
Nsbag1
(g184
g3
Ntp3993
Rp3994
(dp3995
g25
g76
sg188
g3987
sg189
Nsg214
g63
sg215
Nsbasg214
g55
sg215
Nsbag1
(g184
g3
Ntp3996
Rp3997
(dp3998
g25
g147
sg188
g3983
sg189
(lp3999
g1
(g184
g3
Ntp4000
Rp4001
(dp4002
g25
g161
sg188
g3997
sg189
Nsg214
g146
sg215
Nsbag1
(g184
g3
Ntp4003
Rp4004
(dp4005
g25
g161
sg188
g3997
sg189
Nsg214
g146
sg215
Nsbag1
(g184
g3
Ntp4006
Rp4007
(dp4008
g25
g48
sg188
g3997
sg189
Nsg214
g17
sg215
Nsbag1
(g184
g3
Ntp4009
Rp4010
(dp4011
g25
g44
sg188
g3997
sg189
Nsg214
g17
sg215
Nsbag1
(g184
g3
Ntp4012
Rp4013
(dp4014
g25
g76
sg188
g3997
sg189
Nsg214
g63
sg215
Nsbasg214
g56
sg215
Nsbag1
(g184
g3
Ntp4015
Rp4016
(dp4017
g25
g152
sg188
g3983
sg189
(lp4018
g1
(g184
g3
Ntp4019
Rp4020
(dp4021
g25
g161
sg188
g4016
sg189
Nsg214
g146
sg215
Nsbag1
(g184
g3
Ntp4022
Rp4023
(dp4024
g25
g161
sg188
g4016
sg189
Nsg214
g146
sg215
Nsbag1
(g184
g3
Ntp4025
Rp4026
(dp4027
g25
g32
sg188
g4016
sg189
Nsg214
g17
sg215
Nsbag1
(g184
g3
Ntp4028
Rp4029
(dp4030
g25
g44
sg188
g4016
sg189
Nsg214
g17
sg215
Nsbasg214
g56
sg215
Nsbasg214
g62
sg215
Nsbasg214
g140
sg215
Nsbasg214
g90
sg215
Nsbasg214
g83
sg215
Nsbasg214
g77
sg215
Nsbsg251
F-2414.391062685198
sg252
F-14.391062685198053
sg253
F1.0
sg254
F1.0
sg255
Nsg256
g257
sg260
Nsg261
F-2400.0
sg258
g259
sg262
I25
sbag1
(g2
g3
Ntp4031
Rp4032
(dp4033
g7
g10
sg181
Nsg182
Nsg183
g1
(g184
g3
Ntp4034
Rp4035
(dp4036
g25
g84
sg188
Nsg189
(lp4037
g1
(g184
g3
Ntp4038
Rp4039
(dp4040
g25
g96
sg188
g4035
sg189
(lp4041
g1
(g184
g3
Ntp4042
Rp4043
(dp4044
g25
g96
sg188
g4039
sg189
(lp4045
g1
(g184
g3
Ntp4046
Rp4047
(dp4048
g25
g96
sg188
g4043
sg189
(lp4049
g1
(g184
g3
Ntp4050
Rp4051
(dp4052
g25
g167
sg188
g4047
sg189
(lp4053
g1
(g184
g3
Ntp4054
Rp4055
(dp4056
g25
g107
sg188
g4051
sg189
(lp4057
g1
(g184
g3
Ntp4058
Rp4059
(dp4060
g25
g44
sg188
g4055
sg189
Nsg214
g17
sg215
Nsbag1
(g184
g3
Ntp4061
Rp4062
(dp4063
g25
g76
sg188
g4055
sg189
Nsg214
g63
sg215
Nsbasg214
g55
sg215
Nsbag1
(g184
g3
Ntp4064
Rp4065
(dp4066
g25
g147
sg188
g4051
sg189
(lp4067
g1
(g184
g3
Ntp4068
Rp4069
(dp4070
g25
g161
sg188
g4065
sg189
Nsg214
g146
sg215
Nsbag1
(g184
g3
Ntp4071
Rp4072
(dp4073
g25
g161
sg188
g4065
sg189
Nsg214
g146
sg215
Nsbag1
(g184
g3
Ntp4074
Rp4075
(dp4076
g25
g48
sg188
g4065
sg189
Nsg214
g17
sg215
Nsbag1
(g184
g3
Ntp4077
Rp4078
(dp4079
g25
g44
sg188
g4065
sg189
Nsg214
g17
sg215
Nsbag1
(g184
g3
Ntp4080
Rp4081
(dp4082
g25
g76
sg188
g4065
sg189
Nsg214
g63
sg215
Nsbasg214
g56
sg215
Nsbag1
(g184
g3
Ntp4083
Rp4084
(dp4085
g25
g152
sg188
g4051
sg189
(lp4086
g1
(g184
g3
Ntp4087
Rp4088
(dp4089
g25
g161
sg188
g4084
sg189
Nsg214
g146
sg215
Nsbag1
(g184
g3
Ntp4090
Rp4091
(dp4092
g25
g161
sg188
g4084
sg189
Nsg214
g146
sg215
Nsbag1
(g184
g3
Ntp4093
Rp4094
(dp4095
g25
g32
sg188
g4084
sg189
Nsg214
g17
sg215
Nsbag1
(g184
g3
Ntp4096
Rp4097
(dp4098
g25
g44
sg188
g4084
sg189
Nsg214
g17
sg215
Nsbasg214
g56
sg215
Nsbasg214
g62
sg215
Nsbasg214
g140
sg215
Nsbasg214
g90
sg215
Nsbasg214
g83
sg215
Nsbasg214
g77
sg215
Nsbsg251
F-2414.391062685198
sg252
F-14.391062685198053
sg253
F1.0
sg254
F1.0
sg255
Nsg256
g257
sg260
Nsg261
F-2400.0
sg258
g259
sg262
I25
sbag1
(g2
g3
Ntp4099
Rp4100
(dp4101
g7
g10
sg181
Nsg182
Nsg183
g1
(g184
g3
Ntp4102
Rp4103
(dp4104
g25
g84
sg188
Nsg189
(lp4105
g1
(g184
g3
Ntp4106
Rp4107
(dp4108
g25
g96
sg188
g4103
sg189
(lp4109
g1
(g184
g3
Ntp4110
Rp4111
(dp4112
g25
g96
sg188
g4107
sg189
(lp4113
g1
(g184
g3
Ntp4114
Rp4115
(dp4116
g25
g96
sg188
g4111
sg189
(lp4117
g1
(g184
g3
Ntp4118
Rp4119
(dp4120
g25
g167
sg188
g4115
sg189
(lp4121
g1
(g184
g3
Ntp4122
Rp4123
(dp4124
g25
g107
sg188
g4119
sg189
(lp4125
g1
(g184
g3
Ntp4126
Rp4127
(dp4128
g25
g44
sg188
g4123
sg189
Nsg214
g17
sg215
Nsbag1
(g184
g3
Ntp4129
Rp4130
(dp4131
g25
g76
sg188
g4123
sg189
Nsg214
g63
sg215
Nsbasg214
g55
sg215
Nsbag1
(g184
g3
Ntp4132
Rp4133
(dp4134
g25
g147
sg188
g4119
sg189
(lp4135
g1
(g184
g3
Ntp4136
Rp4137
(dp4138
g25
g161
sg188
g4133
sg189
Nsg214
g146
sg215
Nsbag1
(g184
g3
Ntp4139
Rp4140
(dp4141
g25
g161
sg188
g4133
sg189
Nsg214
g146
sg215
Nsbag1
(g184
g3
Ntp4142
Rp4143
(dp4144
g25
g48
sg188
g4133
sg189
Nsg214
g17
sg215
Nsbag1
(g184
g3
Ntp4145
Rp4146
(dp4147
g25
g44
sg188
g4133
sg189
Nsg214
g17
sg215
Nsbag1
(g184
g3
Ntp4148
Rp4149
(dp4150
g25
g76
sg188
g4133
sg189
Nsg214
g63
sg215
Nsbasg214
g56
sg215
Nsbag1
(g184
g3
Ntp4151
Rp4152
(dp4153
g25
g152
sg188
g4119
sg189
(lp4154
g1
(g184
g3
Ntp4155
Rp4156
(dp4157
g25
g161
sg188
g4152
sg189
Nsg214
g146
sg215
Nsbag1
(g184
g3
Ntp4158
Rp4159
(dp4160
g25
g161
sg188
g4152
sg189
Nsg214
g146
sg215
Nsbag1
(g184
g3
Ntp4161
Rp4162
(dp4163
g25
g48
sg188
g4152
sg189
Nsg214
g17
sg215
Nsbag1
(g184
g3
Ntp4164
Rp4165
(dp4166
g25
g44
sg188
g4152
sg189
Nsg214
g17
sg215
Nsbasg214
g56
sg215
Nsbasg214
g62
sg215
Nsbasg214
g140
sg215
Nsbasg214
g90
sg215
Nsbasg214
g83
sg215
Nsbasg214
g77
sg215
Nsbsg251
F-2414.391062685198
sg252
F-14.391062685198053
sg253
F1.0
sg254
F1.0
sg255
Nsg256
g257
sg260
Nsg261
F-2400.0
sg258
g259
sg262
I25
sbag4100
ag4100
ag4100
ag1
(g2
g3
Ntp4167
Rp4168
(dp4169
g7
g10
sg181
Nsg182
Nsg183
g1
(g184
g3
Ntp4170
Rp4171
(dp4172
g25
g84
sg188
Nsg189
(lp4173
g1
(g184
g3
Ntp4174
Rp4175
(dp4176
g25
g96
sg188
g4171
sg189
(lp4177
g1
(g184
g3
Ntp4178
Rp4179
(dp4180
g25
g96
sg188
g4175
sg189
(lp4181
g1
(g184
g3
Ntp4182
Rp4183
(dp4184
g25
g96
sg188
g4179
sg189
(lp4185
g1
(g184
g3
Ntp4186
Rp4187
(dp4188
g25
g167
sg188
g4183
sg189
(lp4189
g1
(g184
g3
Ntp4190
Rp4191
(dp4192
g25
g107
sg188
g4187
sg189
(lp4193
g1
(g184
g3
Ntp4194
Rp4195
(dp4196
g25
g44
sg188
g4191
sg189
Nsg214
g17
sg215
Nsbag1
(g184
g3
Ntp4197
Rp4198
(dp4199
g25
g76
sg188
g4191
sg189
Nsg214
g63
sg215
Nsbasg214
g55
sg215
Nsbag1
(g184
g3
Ntp4200
Rp4201
(dp4202
g25
g147
sg188
g4187
sg189
(lp4203
g1
(g184
g3
Ntp4204
Rp4205
(dp4206
g25
g161
sg188
g4201
sg189
Nsg214
g146
sg215
Nsbag1
(g184
g3
Ntp4207
Rp4208
(dp4209
g25
g161
sg188
g4201
sg189
Nsg214
g146
sg215
Nsbag1
(g184
g3
Ntp4210
Rp4211
(dp4212
g25
g48
sg188
g4201
sg189
Nsg214
g17
sg215
Nsbag1
(g184
g3
Ntp4213
Rp4214
(dp4215
g25
g44
sg188
g4201
sg189
Nsg214
g17
sg215
Nsbag1
(g184
g3
Ntp4216
Rp4217
(dp4218
g25
g76
sg188
g4201
sg189
Nsg214
g63
sg215
Nsbasg214
g56
sg215
Nsbag1
(g184
g3
Ntp4219
Rp4220
(dp4221
g25
g152
sg188
g4187
sg189
(lp4222
g1
(g184
g3
Ntp4223
Rp4224
(dp4225
g25
g161
sg188
g4220
sg189
Nsg214
g146
sg215
Nsbag1
(g184
g3
Ntp4226
Rp4227
(dp4228
g25
g161
sg188
g4220
sg189
Nsg214
g146
sg215
Nsbag1
(g184
g3
Ntp4229
Rp4230
(dp4231
g25
g48
sg188
g4220
sg189
Nsg214
g17
sg215
Nsbag1
(g184
g3
Ntp4232
Rp4233
(dp4234
g25
g44
sg188
g4220
sg189
Nsg214
g17
sg215
Nsbasg214
g56
sg215
Nsbasg214
g62
sg215
Nsbasg214
g140
sg215
Nsbasg214
g90
sg215
Nsbasg214
g83
sg215
Nsbasg214
g77
sg215
Nsbsg251
F-2414.391062685198
sg252
F-14.391062685198053
sg253
F1.0
sg254
F1.0
sg255
Nsg256
g257
sg260
Nsg261
F-2400.0
sg258
g259
sg262
I25
sbag1
(g2
g3
Ntp4235
Rp4236
(dp4237
g7
g10
sg181
Nsg182
Nsg183
g1
(g184
g3
Ntp4238
Rp4239
(dp4240
g25
g84
sg188
Nsg189
(lp4241
g1
(g184
g3
Ntp4242
Rp4243
(dp4244
g25
g96
sg188
g4239
sg189
(lp4245
g1
(g184
g3
Ntp4246
Rp4247
(dp4248
g25
g96
sg188
g4243
sg189
(lp4249
g1
(g184
g3
Ntp4250
Rp4251
(dp4252
g25
g96
sg188
g4247
sg189
(lp4253
g1
(g184
g3
Ntp4254
Rp4255
(dp4256
g25
g57
sg188
g4251
sg189
(lp4257
g1
(g184
g3
Ntp4258
Rp4259
(dp4260
g25
g130
sg188
g4255
sg189
Nsg214
g55
sg215
Nsbag1
(g184
g3
Ntp4261
Rp4262
(dp4263
g25
g152
sg188
g4255
sg189
(lp4264
g1
(g184
g3
Ntp4265
Rp4266
(dp4267
g25
g161
sg188
g4262
sg189
Nsg214
g146
sg215
Nsbag1
(g184
g3
Ntp4268
Rp4269
(dp4270
g25
g161
sg188
g4262
sg189
Nsg214
g146
sg215
Nsbag1
(g184
g3
Ntp4271
Rp4272
(dp4273
g25
g36
sg188
g4262
sg189
Nsg214
g17
sg215
Nsbag1
(g184
g3
Ntp4274
Rp4275
(dp4276
g25
g32
sg188
g4262
sg189
Nsg214
g17
sg215
Nsbasg214
g56
sg215
Nsbasg214
g49
sg215
Nsbasg214
g140
sg215
Nsbasg214
g90
sg215
Nsbasg214
g83
sg215
Nsbasg214
g77
sg215
Nsbsg251
F-2410.0656064020127
sg252
F-10.065606402012564
sg253
F1.0
sg254
F1.0
sg255
Nsg256
g257
sg260
Nsg261
F-2400.0
sg258
g259
sg262
I25
sbag1
(g2
g3
Ntp4277
Rp4278
(dp4279
g7
g10
sg181
Nsg182
Nsg183
g1
(g184
g3
Ntp4280
Rp4281
(dp4282
g25
g84
sg188
Nsg189
(lp4283
g1
(g184
g3
Ntp4284
Rp4285
(dp4286
g25
g96
sg188
g4281
sg189
(lp4287
g1
(g184
g3
Ntp4288
Rp4289
(dp4290
g25
g96
sg188
g4285
sg189
(lp4291
g1
(g184
g3
Ntp4292
Rp4293
(dp4294
g25
g96
sg188
g4289
sg189
(lp4295
g1
(g184
g3
Ntp4296
Rp4297
(dp4298
g25
g57
sg188
g4293
sg189
(lp4299
g1
(g184
g3
Ntp4300
Rp4301
(dp4302
g25
g130
sg188
g4297
sg189
Nsg214
g55
sg215
Nsbag1
(g184
g3
Ntp4303
Rp4304
(dp4305
g25
g152
sg188
g4297
sg189
(lp4306
g1
(g184
g3
Ntp4307
Rp4308
(dp4309
g25
g161
sg188
g4304
sg189
Nsg214
g146
sg215
Nsbag1
(g184
g3
Ntp4310
Rp4311
(dp4312
g25
g161
sg188
g4304
sg189
Nsg214
g146
sg215
Nsbag1
(g184
g3
Ntp4313
Rp4314
(dp4315
g25
g40
sg188
g4304
sg189
Nsg214
g17
sg215
Nsbag1
(g184
g3
Ntp4316
Rp4317
(dp4318
g25
g32
sg188
g4304
sg189
Nsg214
g17
sg215
Nsbasg214
g56
sg215
Nsbasg214
g49
sg215
Nsbasg214
g140
sg215
Nsbasg214
g90
sg215
Nsbasg214
g83
sg215
Nsbasg214
g77
sg215
Nsbsg251
F-2410.0656064020127
sg252
F-10.065606402012564
sg253
F1.0
sg254
F1.0
sg255
Nsg256
g257
sg260
Nsg261
F-2400.0
sg258
g259
sg262
I25
sbag1
(g2
g3
Ntp4319
Rp4320
(dp4321
g7
g10
sg181
Nsg182
Nsg183
g1
(g184
g3
Ntp4322
Rp4323
(dp4324
g25
g84
sg188
Nsg189
(lp4325
g1
(g184
g3
Ntp4326
Rp4327
(dp4328
g25
g96
sg188
g4323
sg189
(lp4329
g1
(g184
g3
Ntp4330
Rp4331
(dp4332
g25
g96
sg188
g4327
sg189
(lp4333
g1
(g184
g3
Ntp4334
Rp4335
(dp4336
g25
g96
sg188
g4331
sg189
(lp4337
g1
(g184
g3
Ntp4338
Rp4339
(dp4340
g25
g57
sg188
g4335
sg189
(lp4341
g1
(g184
g3
Ntp4342
Rp4343
(dp4344
g25
g130
sg188
g4339
sg189
Nsg214
g55
sg215
Nsbag1
(g184
g3
Ntp4345
Rp4346
(dp4347
g25
g152
sg188
g4339
sg189
(lp4348
g1
(g184
g3
Ntp4349
Rp4350
(dp4351
g25
g161
sg188
g4346
sg189
Nsg214
g146
sg215
Nsbag1
(g184
g3
Ntp4352
Rp4353
(dp4354
g25
g161
sg188
g4346
sg189
Nsg214
g146
sg215
Nsbag1
(g184
g3
Ntp4355
Rp4356
(dp4357
g25
g44
sg188
g4346
sg189
Nsg214
g17
sg215
Nsbag1
(g184
g3
Ntp4358
Rp4359
(dp4360
g25
g32
sg188
g4346
sg189
Nsg214
g17
sg215
Nsbasg214
g56
sg215
Nsbasg214
g49
sg215
Nsbasg214
g140
sg215
Nsbasg214
g90
sg215
Nsbasg214
g83
sg215
Nsbasg214
g77
sg215
Nsbsg251
F-2408.4561684895784
sg252
F-8.456168489578463
sg253
F1.0
sg254
F1.0
sg255
Nsg256
g257
sg260
Nsg261
F-2400.0
sg258
g259
sg262
I25
sbag4320
ag4320
ag4320
ag4320
ag1
(g2
g3
Ntp4361
Rp4362
(dp4363
g7
g10
sg181
Nsg182
Nsg183
g1
(g184
g3
Ntp4364
Rp4365
(dp4366
g25
g84
sg188
Nsg189
(lp4367
g1
(g184
g3
Ntp4368
Rp4369
(dp4370
g25
g96
sg188
g4365
sg189
(lp4371
g1
(g184
g3
Ntp4372
Rp4373
(dp4374
g25
g96
sg188
g4369
sg189
(lp4375
g1
(g184
g3
Ntp4376
Rp4377
(dp4378
g25
g96
sg188
g4373
sg189
(lp4379
g1
(g184
g3
Ntp4380
Rp4381
(dp4382
g25
g57
sg188
g4377
sg189
(lp4383
g1
(g184
g3
Ntp4384
Rp4385
(dp4386
g25
g130
sg188
g4381
sg189
Nsg214
g55
sg215
Nsbag1
(g184
g3
Ntp4387
Rp4388
(dp4389
g25
g152
sg188
g4381
sg189
(lp4390
g1
(g184
g3
Ntp4391
Rp4392
(dp4393
g25
g161
sg188
g4388
sg189
Nsg214
g146
sg215
Nsbag1
(g184
g3
Ntp4394
Rp4395
(dp4396
g25
g161
sg188
g4388
sg189
Nsg214
g146
sg215
Nsbag1
(g184
g3
Ntp4397
Rp4398
(dp4399
g25
g44
sg188
g4388
sg189
Nsg214
g17
sg215
Nsbag1
(g184
g3
Ntp4400
Rp4401
(dp4402
g25
g48
sg188
g4388
sg189
Nsg214
g17
sg215
Nsbasg214
g56
sg215
Nsbasg214
g49
sg215
Nsbasg214
g140
sg215
Nsbasg214
g90
sg215
Nsbasg214
g83
sg215
Nsbasg214
g77
sg215
Nsbsg251
F-2408.4561684895784
sg252
F-8.456168489578463
sg253
F1.0
sg254
F1.0
sg255
Nsg256
g257
sg260
Nsg261
F-2400.0
sg258
g259
sg262
I25
sbag4362
ag4362
ag1
(g2
g3
Ntp4403
Rp4404
(dp4405
g7
g10
sg181
Nsg182
Nsg183
g1
(g184
g3
Ntp4406
Rp4407
(dp4408
g25
g84
sg188
Nsg189
(lp4409
g1
(g184
g3
Ntp4410
Rp4411
(dp4412
g25
g96
sg188
g4407
sg189
(lp4413
g1
(g184
g3
Ntp4414
Rp4415
(dp4416
g25
g96
sg188
g4411
sg189
(lp4417
g1
(g184
g3
Ntp4418
Rp4419
(dp4420
g25
g96
sg188
g4415
sg189
(lp4421
g1
(g184
g3
Ntp4422
Rp4423
(dp4424
g25
g57
sg188
g4419
sg189
(lp4425
g1
(g184
g3
Ntp4426
Rp4427
(dp4428
g25
g130
sg188
g4423
sg189
Nsg214
g55
sg215
Nsbag1
(g184
g3
Ntp4429
Rp4430
(dp4431
g25
g152
sg188
g4423
sg189
(lp4432
g1
(g184
g3
Ntp4433
Rp4434
(dp4435
g25
g161
sg188
g4430
sg189
Nsg214
g146
sg215
Nsbag1
(g184
g3
Ntp4436
Rp4437
(dp4438
g25
g161
sg188
g4430
sg189
Nsg214
g146
sg215
Nsbag1
(g184
g3
Ntp4439
Rp4440
(dp4441
g25
g44
sg188
g4430
sg189
Nsg214
g17
sg215
Nsbag1
(g184
g3
Ntp4442
Rp4443
(dp4444
g25
g48
sg188
g4430
sg189
Nsg214
g17
sg215
Nsbasg214
g56
sg215
Nsbasg214
g49
sg215
Nsbasg214
g140
sg215
Nsbasg214
g90
sg215
Nsbasg214
g83
sg215
Nsbasg214
g77
sg215
Nsbsg251
F-2408.4561684895784
sg252
F-8.456168489578463
sg253
F1.0
sg254
F1.0
sg255
Nsg256
g257
sg260
Nsg261
F-2400.0
sg258
g259
sg262
I25
sbag4404
ag1
(g2
g3
Ntp4445
Rp4446
(dp4447
g7
g10
sg181
Nsg182
Nsg183
g1
(g184
g3
Ntp4448
Rp4449
(dp4450
g25
g84
sg188
Nsg189
(lp4451
g1
(g184
g3
Ntp4452
Rp4453
(dp4454
g25
g96
sg188
g4449
sg189
(lp4455
g1
(g184
g3
Ntp4456
Rp4457
(dp4458
g25
g96
sg188
g4453
sg189
(lp4459
g1
(g184
g3
Ntp4460
Rp4461
(dp4462
g25
g96
sg188
g4457
sg189
(lp4463
g1
(g184
g3
Ntp4464
Rp4465
(dp4466
g25
g57
sg188
g4461
sg189
(lp4467
g1
(g184
g3
Ntp4468
Rp4469
(dp4470
g25
g130
sg188
g4465
sg189
Nsg214
g55
sg215
Nsbag1
(g184
g3
Ntp4471
Rp4472
(dp4473
g25
g152
sg188
g4465
sg189
(lp4474
g1
(g184
g3
Ntp4475
Rp4476
(dp4477
g25
g161
sg188
g4472
sg189
Nsg214
g146
sg215
Nsbag1
(g184
g3
Ntp4478
Rp4479
(dp4480
g25
g161
sg188
g4472
sg189
Nsg214
g146
sg215
Nsbag1
(g184
g3
Ntp4481
Rp4482
(dp4483
g25
g36
sg188
g4472
sg189
Nsg214
g17
sg215
Nsbag1
(g184
g3
Ntp4484
Rp4485
(dp4486
g25
g32
sg188
g4472
sg189
Nsg214
g17
sg215
Nsbasg214
g56
sg215
Nsbasg214
g49
sg215
Nsbasg214
g140
sg215
Nsbasg214
g90
sg215
Nsbasg214
g83
sg215
Nsbasg214
g77
sg215
Nsbsg251
F-2410.0656064020127
sg252
F-10.065606402012564
sg253
F1.0
sg254
F1.0
sg255
Nsg256
g257
sg260
Nsg261
F-2400.0
sg258
g259
sg262
I25
sbag1
(g2
g3
Ntp4487
Rp4488
(dp4489
g7
g10
sg181
Nsg182
Nsg183
g1
(g184
g3
Ntp4490
Rp4491
(dp4492
g25
g84
sg188
Nsg189
(lp4493
g1
(g184
g3
Ntp4494
Rp4495
(dp4496
g25
g96
sg188
g4491
sg189
(lp4497
g1
(g184
g3
Ntp4498
Rp4499
(dp4500
g25
g96
sg188
g4495
sg189
(lp4501
g1
(g184
g3
Ntp4502
Rp4503
(dp4504
g25
g96
sg188
g4499
sg189
(lp4505
g1
(g184
g3
Ntp4506
Rp4507
(dp4508
g25
g57
sg188
g4503
sg189
(lp4509
g1
(g184
g3
Ntp4510
Rp4511
(dp4512
g25
g130
sg188
g4507
sg189
Nsg214
g55
sg215
Nsbag1
(g184
g3
Ntp4513
Rp4514
(dp4515
g25
g152
sg188
g4507
sg189
(lp4516
g1
(g184
g3
Ntp4517
Rp4518
(dp4519
g25
g161
sg188
g4514
sg189
Nsg214
g146
sg215
Nsbag1
(g184
g3
Ntp4520
Rp4521
(dp4522
g25
g161
sg188
g4514
sg189
Nsg214
g146
sg215
Nsbag1
(g184
g3
Ntp4523
Rp4524
(dp4525
g25
g36
sg188
g4514
sg189
Nsg214
g17
sg215
Nsbag1
(g184
g3
Ntp4526
Rp4527
(dp4528
g25
g36
sg188
g4514
sg189
Nsg214
g17
sg215
Nsbasg214
g56
sg215
Nsbasg214
g49
sg215
Nsbasg214
g140
sg215
Nsbasg214
g90
sg215
Nsbasg214
g83
sg215
Nsbasg214
g77
sg215
Nsbsg251
F-2410.0656064020127
sg252
F-10.065606402012564
sg253
F1.0
sg254
F1.0
sg255
Nsg256
g257
sg260
Nsg261
F-2400.0
sg258
g259
sg262
I25
sbag1
(g2
g3
Ntp4529
Rp4530
(dp4531
g7
g10
sg181
Nsg182
Nsg183
g1
(g184
g3
Ntp4532
Rp4533
(dp4534
g25
g84
sg188
Nsg189
(lp4535
g1
(g184
g3
Ntp4536
Rp4537
(dp4538
g25
g96
sg188
g4533
sg189
(lp4539
g1
(g184
g3
Ntp4540
Rp4541
(dp4542
g25
g96
sg188
g4537
sg189
(lp4543
g1
(g184
g3
Ntp4544
Rp4545
(dp4546
g25
g96
sg188
g4541
sg189
(lp4547
g1
(g184
g3
Ntp4548
Rp4549
(dp4550
g25
g57
sg188
g4545
sg189
(lp4551
g1
(g184
g3
Ntp4552
Rp4553
(dp4554
g25
g130
sg188
g4549
sg189
Nsg214
g55
sg215
Nsbag1
(g184
g3
Ntp4555
Rp4556
(dp4557
g25
g152
sg188
g4549
sg189
(lp4558
g1
(g184
g3
Ntp4559
Rp4560
(dp4561
g25
g161
sg188
g4556
sg189
Nsg214
g146
sg215
Nsbag1
(g184
g3
Ntp4562
Rp4563
(dp4564
g25
g161
sg188
g4556
sg189
Nsg214
g146
sg215
Nsbag1
(g184
g3
Ntp4565
Rp4566
(dp4567
g25
g36
sg188
g4556
sg189
Nsg214
g17
sg215
Nsbag1
(g184
g3
Ntp4568
Rp4569
(dp4570
g25
g36
sg188
g4556
sg189
Nsg214
g17
sg215
Nsbasg214
g56
sg215
Nsbasg214
g49
sg215
Nsbasg214
g140
sg215
Nsbasg214
g90
sg215
Nsbasg214
g83
sg215
Nsbasg214
g77
sg215
Nsbsg251
F-2410.0656064020127
sg252
F-10.065606402012564
sg253
F1.0
sg254
F1.0
sg255
Nsg256
g257
sg260
Nsg261
F-2400.0
sg258
g259
sg262
I25
sbag1
(g2
g3
Ntp4571
Rp4572
(dp4573
g7
g10
sg181
Nsg182
Nsg183
g1
(g184
g3
Ntp4574
Rp4575
(dp4576
g25
g84
sg188
Nsg189
(lp4577
g1
(g184
g3
Ntp4578
Rp4579
(dp4580
g25
g96
sg188
g4575
sg189
(lp4581
g1
(g184
g3
Ntp4582
Rp4583
(dp4584
g25
g96
sg188
g4579
sg189
(lp4585
g1
(g184
g3
Ntp4586
Rp4587
(dp4588
g25
g96
sg188
g4583
sg189
(lp4589
g1
(g184
g3
Ntp4590
Rp4591
(dp4592
g25
g57
sg188
g4587
sg189
(lp4593
g1
(g184
g3
Ntp4594
Rp4595
(dp4596
g25
g107
sg188
g4591
sg189
(lp4597
g1
(g184
g3
Ntp4598
Rp4599
(dp4600
g25
g36
sg188
g4595
sg189
Nsg214
g17
sg215
Nsbag1
(g184
g3
Ntp4601
Rp4602
(dp4603
g25
g68
sg188
g4595
sg189
Nsg214
g63
sg215
Nsbasg214
g55
sg215
Nsbag1
(g184
g3
Ntp4604
Rp4605
(dp4606
g25
g152
sg188
g4591
sg189
(lp4607
g1
(g184
g3
Ntp4608
Rp4609
(dp4610
g25
g161
sg188
g4605
sg189
Nsg214
g146
sg215
Nsbag1
(g184
g3
Ntp4611
Rp4612
(dp4613
g25
g161
sg188
g4605
sg189
Nsg214
g146
sg215
Nsbag1
(g184
g3
Ntp4614
Rp4615
(dp4616
g25
g36
sg188
g4605
sg189
Nsg214
g17
sg215
Nsbag1
(g184
g3
Ntp4617
Rp4618
(dp4619
g25
g36
sg188
g4605
sg189
Nsg214
g17
sg215
Nsbasg214
g56
sg215
Nsbasg214
g49
sg215
Nsbasg214
g140
sg215
Nsbasg214
g90
sg215
Nsbasg214
g83
sg215
Nsbasg214
g77
sg215
Nsbsg251
F-2413.4668037836745
sg252
F-13.46680378367472
sg253
F1.0
sg254
F1.0
sg255
Nsg256
g257
sg260
Nsg261
F-2400.0
sg258
g259
sg262
I25
sbag1
(g2
g3
Ntp4620
Rp4621
(dp4622
g7
g10
sg181
Nsg182
Nsg183
g1
(g184
g3
Ntp4623
Rp4624
(dp4625
g25
g84
sg188
Nsg189
(lp4626
g1
(g184
g3
Ntp4627
Rp4628
(dp4629
g25
g96
sg188
g4624
sg189
(lp4630
g1
(g184
g3
Ntp4631
Rp4632
(dp4633
g25
g96
sg188
g4628
sg189
(lp4634
g1
(g184
g3
Ntp4635
Rp4636
(dp4637
g25
g96
sg188
g4632
sg189
(lp4638
g1
(g184
g3
Ntp4639
Rp4640
(dp4641
g25
g57
sg188
g4636
sg189
(lp4642
g1
(g184
g3
Ntp4643
Rp4644
(dp4645
g25
g107
sg188
g4640
sg189
(lp4646
g1
(g184
g3
Ntp4647
Rp4648
(dp4649
g25
g36
sg188
g4644
sg189
Nsg214
g17
sg215
Nsbag1
(g184
g3
Ntp4650
Rp4651
(dp4652
g25
g68
sg188
g4644
sg189
Nsg214
g63
sg215
Nsbasg214
g55
sg215
Nsbag1
(g184
g3
Ntp4653
Rp4654
(dp4655
g25
g152
sg188
g4640
sg189
(lp4656
g1
(g184
g3
Ntp4657
Rp4658
(dp4659
g25
g161
sg188
g4654
sg189
Nsg214
g146
sg215
Nsbag1
(g184
g3
Ntp4660
Rp4661
(dp4662
g25
g161
sg188
g4654
sg189
Nsg214
g146
sg215
Nsbag1
(g184
g3
Ntp4663
Rp4664
(dp4665
g25
g44
sg188
g4654
sg189
Nsg214
g17
sg215
Nsbag1
(g184
g3
Ntp4666
Rp4667
(dp4668
g25
g36
sg188
g4654
sg189
Nsg214
g17
sg215
Nsbasg214
g56
sg215
Nsbasg214
g49
sg215
Nsbasg214
g140
sg215
Nsbasg214
g90
sg215
Nsbasg214
g83
sg215
Nsbasg214
g77
sg215
Nsbsg251
F-2411.8573658712407
sg252
F-11.857365871240619
sg253
F1.0
sg254
F1.0
sg255
Nsg256
g257
sg260
Nsg261
F-2400.0
sg258
g259
sg262
I25
sbag1
(g2
g3
Ntp4669
Rp4670
(dp4671
g7
g10
sg181
Nsg182
Nsg183
g1
(g184
g3
Ntp4672
Rp4673
(dp4674
g25
g84
sg188
Nsg189
(lp4675
g1
(g184
g3
Ntp4676
Rp4677
(dp4678
g25
g96
sg188
g4673
sg189
(lp4679
g1
(g184
g3
Ntp4680
Rp4681
(dp4682
g25
g96
sg188
g4677
sg189
(lp4683
g1
(g184
g3
Ntp4684
Rp4685
(dp4686
g25
g96
sg188
g4681
sg189
(lp4687
g1
(g184
g3
Ntp4688
Rp4689
(dp4690
g25
g57
sg188
g4685
sg189
(lp4691
g1
(g184
g3
Ntp4692
Rp4693
(dp4694
g25
g107
sg188
g4689
sg189
(lp4695
g1
(g184
g3
Ntp4696
Rp4697
(dp4698
g25
g36
sg188
g4693
sg189
Nsg214
g17
sg215
Nsbag1
(g184
g3
Ntp4699
Rp4700
(dp4701
g25
g68
sg188
g4693
sg189
Nsg214
g63
sg215
Nsbasg214
g55
sg215
Nsbag1
(g184
g3
Ntp4702
Rp4703
(dp4704
g25
g152
sg188
g4689
sg189
(lp4705
g1
(g184
g3
Ntp4706
Rp4707
(dp4708
g25
g161
sg188
g4703
sg189
Nsg214
g146
sg215
Nsbag1
(g184
g3
Ntp4709
Rp4710
(dp4711
g25
g161
sg188
g4703
sg189
Nsg214
g146
sg215
Nsbag1
(g184
g3
Ntp4712
Rp4713
(dp4714
g25
g36
sg188
g4703
sg189
Nsg214
g17
sg215
Nsbag1
(g184
g3
Ntp4715
Rp4716
(dp4717
g25
g36
sg188
g4703
sg189
Nsg214
g17
sg215
Nsbasg214
g56
sg215
Nsbasg214
g49
sg215
Nsbasg214
g140
sg215
Nsbasg214
g90
sg215
Nsbasg214
g83
sg215
Nsbasg214
g77
sg215
Nsbsg251
F-2413.4668037836745
sg252
F-13.46680378367472
sg253
F1.0
sg254
F1.0
sg255
Nsg256
g257
sg260
Nsg261
F-2400.0
sg258
g259
sg262
I25
sbag1
(g2
g3
Ntp4718
Rp4719
(dp4720
g7
g10
sg181
Nsg182
Nsg183
g1
(g184
g3
Ntp4721
Rp4722
(dp4723
g25
g84
sg188
Nsg189
(lp4724
g1
(g184
g3
Ntp4725
Rp4726
(dp4727
g25
g96
sg188
g4722
sg189
(lp4728
g1
(g184
g3
Ntp4729
Rp4730
(dp4731
g25
g96
sg188
g4726
sg189
(lp4732
g1
(g184
g3
Ntp4733
Rp4734
(dp4735
g25
g96
sg188
g4730
sg189
(lp4736
g1
(g184
g3
Ntp4737
Rp4738
(dp4739
g25
g57
sg188
g4734
sg189
(lp4740
g1
(g184
g3
Ntp4741
Rp4742
(dp4743
g25
g107
sg188
g4738
sg189
(lp4744
g1
(g184
g3
Ntp4745
Rp4746
(dp4747
g25
g36
sg188
g4742
sg189
Nsg214
g17
sg215
Nsbag1
(g184
g3
Ntp4748
Rp4749
(dp4750
g25
g68
sg188
g4742
sg189
Nsg214
g63
sg215
Nsbasg214
g55
sg215
Nsbag1
(g184
g3
Ntp4751
Rp4752
(dp4753
g25
g152
sg188
g4738
sg189
(lp4754
g1
(g184
g3
Ntp4755
Rp4756
(dp4757
g25
g161
sg188
g4752
sg189
Nsg214
g146
sg215
Nsbag1
(g184
g3
Ntp4758
Rp4759
(dp4760
g25
g161
sg188
g4752
sg189
Nsg214
g146
sg215
Nsbag1
(g184
g3
Ntp4761
Rp4762
(dp4763
g25
g36
sg188
g4752
sg189
Nsg214
g17
sg215
Nsbag1
(g184
g3
Ntp4764
Rp4765
(dp4766
g25
g36
sg188
g4752
sg189
Nsg214
g17
sg215
Nsbasg214
g56
sg215
Nsbasg214
g49
sg215
Nsbasg214
g140
sg215
Nsbasg214
g90
sg215
Nsbasg214
g83
sg215
Nsbasg214
g77
sg215
Nsbsg251
F-2413.4668037836745
sg252
F-13.46680378367472
sg253
F1.0
sg254
F1.0
sg255
Nsg256
g257
sg260
Nsg261
F-2400.0
sg258
g259
sg262
I25
sbag1
(g2
g3
Ntp4767
Rp4768
(dp4769
g7
g10
sg181
Nsg182
Nsg183
g1
(g184
g3
Ntp4770
Rp4771
(dp4772
g25
g84
sg188
Nsg189
(lp4773
g1
(g184
g3
Ntp4774
Rp4775
(dp4776
g25
g96
sg188
g4771
sg189
(lp4777
g1
(g184
g3
Ntp4778
Rp4779
(dp4780
g25
g96
sg188
g4775
sg189
(lp4781
g1
(g184
g3
Ntp4782
Rp4783
(dp4784
g25
g96
sg188
g4779
sg189
(lp4785
g1
(g184
g3
Ntp4786
Rp4787
(dp4788
g25
g57
sg188
g4783
sg189
(lp4789
g1
(g184
g3
Ntp4790
Rp4791
(dp4792
g25
g107
sg188
g4787
sg189
(lp4793
g1
(g184
g3
Ntp4794
Rp4795
(dp4796
g25
g32
sg188
g4791
sg189
Nsg214
g17
sg215
Nsbag1
(g184
g3
Ntp4797
Rp4798
(dp4799
g25
g68
sg188
g4791
sg189
Nsg214
g63
sg215
Nsbasg214
g55
sg215
Nsbag1
(g184
g3
Ntp4800
Rp4801
(dp4802
g25
g152
sg188
g4787
sg189
(lp4803
g1
(g184
g3
Ntp4804
Rp4805
(dp4806
g25
g161
sg188
g4801
sg189
Nsg214
g146
sg215
Nsbag1
(g184
g3
Ntp4807
Rp4808
(dp4809
g25
g161
sg188
g4801
sg189
Nsg214
g146
sg215
Nsbag1
(g184
g3
Ntp4810
Rp4811
(dp4812
g25
g36
sg188
g4801
sg189
Nsg214
g17
sg215
Nsbag1
(g184
g3
Ntp4813
Rp4814
(dp4815
g25
g36
sg188
g4801
sg189
Nsg214
g17
sg215
Nsbasg214
g56
sg215
Nsbasg214
g49
sg215
Nsbasg214
g140
sg215
Nsbasg214
g90
sg215
Nsbasg214
g83
sg215
Nsbasg214
g77
sg215
Nsbsg251
F-2413.4668037836745
sg252
F-13.46680378367472
sg253
F1.0
sg254
F1.0
sg255
Nsg256
g257
sg260
Nsg261
F-2400.0
sg258
g259
sg262
I25
sbag1
(g2
g3
Ntp4816
Rp4817
(dp4818
g7
g10
sg181
Nsg182
Nsg183
g1
(g184
g3
Ntp4819
Rp4820
(dp4821
g25
g84
sg188
Nsg189
(lp4822
g1
(g184
g3
Ntp4823
Rp4824
(dp4825
g25
g96
sg188
g4820
sg189
(lp4826
g1
(g184
g3
Ntp4827
Rp4828
(dp4829
g25
g96
sg188
g4824
sg189
(lp4830
g1
(g184
g3
Ntp4831
Rp4832
(dp4833
g25
g96
sg188
g4828
sg189
(lp4834
g1
(g184
g3
Ntp4835
Rp4836
(dp4837
g25
g57
sg188
g4832
sg189
(lp4838
g1
(g184
g3
Ntp4839
Rp4840
(dp4841
g25
g112
sg188
g4836
sg189
(lp4842
g1
(g184
g3
Ntp4843
Rp4844
(dp4845
g25
g44
sg188
g4840
sg189
Nsg214
g17
sg215
Nsbag1
(g184
g3
Ntp4846
Rp4847
(dp4848
g25
g44
sg188
g4840
sg189
Nsg214
g17
sg215
Nsbasg214
g55
sg215
Nsbag1
(g184
g3
Ntp4849
Rp4850
(dp4851
g25
g167
sg188
g4836
sg189
(lp4852
g1
(g184
g3
Ntp4853
Rp4854
(dp4855
g25
g130
sg188
g4850
sg189
Nsg214
g55
sg215
Nsbag1
(g184
g3
Ntp4856
Rp4857
(dp4858
g25
g152
sg188
g4850
sg189
(lp4859
g1
(g184
g3
Ntp4860
Rp4861
(dp4862
g25
g161
sg188
g4857
sg189
Nsg214
g146
sg215
Nsbag1
(g184
g3
Ntp4863
Rp4864
(dp4865
g25
g161
sg188
g4857
sg189
Nsg214
g146
sg215
Nsbag1
(g184
g3
Ntp4866
Rp4867
(dp4868
g25
g36
sg188
g4857
sg189
Nsg214
g17
sg215
Nsbag1
(g184
g3
Ntp4869
Rp4870
(dp4871
g25
g44
sg188
g4857
sg189
Nsg214
g17
sg215
Nsbasg214
g56
sg215
Nsbag1
(g184
g3
Ntp4872
Rp4873
(dp4874
g25
g156
sg188
g4850
sg189
Nsg214
g56
sg215
Nsbasg214
g62
sg215
Nsbasg214
g49
sg215
Nsbasg214
g140
sg215
Nsbasg214
g90
sg215
Nsbasg214
g83
sg215
Nsbasg214
g77
sg215
Nsbsg251
F-2414.832895437477
sg252
F-14.83289543747709
sg253
F1.0
sg254
F1.0
sg255
Nsg256
g257
sg260
Nsg261
F-2400.0
sg258
g259
sg262
I25
sbag1
(g2
g3
Ntp4875
Rp4876
(dp4877
g7
g10
sg181
Nsg182
Nsg183
g1
(g184
g3
Ntp4878
Rp4879
(dp4880
g25
g84
sg188
Nsg189
(lp4881
g1
(g184
g3
Ntp4882
Rp4883
(dp4884
g25
g96
sg188
g4879
sg189
(lp4885
g1
(g184
g3
Ntp4886
Rp4887
(dp4888
g25
g96
sg188
g4883
sg189
(lp4889
g1
(g184
g3
Ntp4890
Rp4891
(dp4892
g25
g96
sg188
g4887
sg189
(lp4893
g1
(g184
g3
Ntp4894
Rp4895
(dp4896
g25
g57
sg188
g4891
sg189
(lp4897
g1
(g184
g3
Ntp4898
Rp4899
(dp4900
g25
g112
sg188
g4895
sg189
(lp4901
g1
(g184
g3
Ntp4902
Rp4903
(dp4904
g25
g44
sg188
g4899
sg189
Nsg214
g17
sg215
Nsbag1
(g184
g3
Ntp4905
Rp4906
(dp4907
g25
g44
sg188
g4899
sg189
Nsg214
g17
sg215
Nsbasg214
g55
sg215
Nsbag1
(g184
g3
Ntp4908
Rp4909
(dp4910
g25
g167
sg188
g4895
sg189
(lp4911
g1
(g184
g3
Ntp4912
Rp4913
(dp4914
g25
g130
sg188
g4909
sg189
Nsg214
g55
sg215
Nsbag1
(g184
g3
Ntp4915
Rp4916
(dp4917
g25
g152
sg188
g4909
sg189
(lp4918
g1
(g184
g3
Ntp4919
Rp4920
(dp4921
g25
g161
sg188
g4916
sg189
Nsg214
g146
sg215
Nsbag1
(g184
g3
Ntp4922
Rp4923
(dp4924
g25
g161
sg188
g4916
sg189
Nsg214
g146
sg215
Nsbag1
(g184
g3
Ntp4925
Rp4926
(dp4927
g25
g44
sg188
g4916
sg189
Nsg214
g17
sg215
Nsbag1
(g184
g3
Ntp4928
Rp4929
(dp4930
g25
g44
sg188
g4916
sg189
Nsg214
g17
sg215
Nsbasg214
g56
sg215
Nsbag1
(g184
g3
Ntp4931
Rp4932
(dp4933
g25
g156
sg188
g4909
sg189
Nsg214
g56
sg215
Nsbasg214
g62
sg215
Nsbasg214
g49
sg215
Nsbasg214
g140
sg215
Nsbasg214
g90
sg215
Nsbasg214
g83
sg215
Nsbasg214
g77
sg215
Nsbsg251
F-2413.223457525043
sg252
F-13.22345752504299
sg253
F1.0
sg254
F1.0
sg255
Nsg256
g257
sg260
Nsg261
F-2400.0
sg258
g259
sg262
I25
sba.